(dp0
S'gt'
p1
(lp2
S'200.160.0.5'
p3
aS'200.33.111.1'
p4
aS'204.61.216.95'
p5
aS'192.5.4.1'
p6
asS'gs'
p7
(lp8
S'199.19.5.4'
p9
aS'199.19.6.4'
p10
aS'204.61.216.21'
p11
asS'gr'
p12
(lp13
S'194.0.1.25'
p14
aS'194.0.11.102'
p15
aS'194.0.4.10'
p16
aS'139.91.191.3'
p17
aS'78.104.145.227'
p18
aS'139.91.1.1'
p19
asS'gold'
p20
(lp21
S'37.209.194.7'
p22
aS'37.209.192.7'
p23
aS'37.209.198.7'
p24
aS'37.209.196.7'
p25
asS'gy'
p26
(lp27
S'199.19.5.5'
p28
aS'199.19.6.5'
p29
aS'204.61.216.34'
p30
aS'128.223.32.35'
p31
aS'192.5.4.1'
p32
asS'trade'
p33
(lp34
S'156.154.144.165'
p35
aS'156.154.145.165'
p36
aS'156.154.159.165'
p37
aS'156.154.156.165'
p38
aS'156.154.157.165'
p39
aS'156.154.158.165'
p40
asS'gg'
p41
(lp42
S'194.146.106.86'
p43
aS'193.201.42.178'
p44
aS'204.61.216.74'
p45
aS'128.86.1.20'
p46
aS'202.46.190.131'
p47
asS'ge'
p48
(lp49
S'195.47.253.18'
p50
aS'137.39.1.3'
p51
aS'212.72.130.11'
p52
aS'192.93.0.4'
p53
asS'edu'
p54
(lp55
S'192.5.6.30'
p56
aS'192.26.92.30'
p57
aS'192.31.80.30'
p58
aS'192.35.51.30'
p59
aS'192.42.93.30'
p60
aS'192.41.162.30'
p61
asS'gl'
p62
(lp63
S'162.88.52.8'
p64
aS'194.177.224.13'
p65
aS'162.88.53.8'
p66
aS'204.61.216.49'
p67
asS'gdn'
p68
(lp69
S'194.0.25.18'
p70
aS'194.0.26.11'
p71
aS'194.0.24.11'
p72
asS'gh'
p73
(lp74
S'200.160.0.5'
p75
aS'197.253.95.251'
p76
aS'197.253.127.251'
p77
aS'147.28.0.39'
p78
aS'77.72.229.254'
p79
asS'lb'
p80
(lp81
S'203.119.56.132'
p82
aS'147.28.0.39'
p83
aS'77.72.229.254'
p84
aS'193.188.128.14'
p85
asS'la'
p86
(lp87
S'185.24.64.15'
p88
aS'194.169.218.14'
p89
aS'185.24.64.14'
p90
aS'194.169.218.15'
p91
asS'tv'
p92
(lp93
S'192.42.173.30'
p94
aS'192.42.174.30'
p95
aS'192.42.175.30'
p96
aS'192.42.176.30'
p97
asS'tw'
p98
(lp99
S'203.73.24.25'
p100
aS'210.201.138.58'
p101
aS'203.66.87.201'
p102
aS'60.199.165.186'
p103
aS'211.20.231.11'
p104
aS'163.28.1.10'
p105
aS'220.229.225.195'
p106
aS'204.61.216.119'
p107
aS'194.0.11.105'
p108
aS'192.83.166.11'
p109
aS'203.119.43.53'
p110
asS'tt'
p111
(lp112
S'200.33.111.1'
p113
aS'204.61.216.63'
p114
aS'193.0.9.50'
p115
aS'192.5.4.1'
p116
asS'tr'
p117
(lp118
S'213.248.162.131'
p119
aS'213.14.246.2'
p120
aS'213.14.246.6'
p121
aS'31.210.155.2'
p122
aS'185.7.0.2'
p123
aS'185.7.0.3'
p124
aS'162.88.54.1'
p125
aS'162.88.55.1'
p126
asS'lk'
p127
(lp128
S'203.143.29.3'
p129
aS'123.231.6.18'
p130
aS'192.248.8.17'
p131
aS'202.129.235.229'
p132
aS'204.61.216.27'
p133
aS'203.94.66.129'
p134
aS'192.248.1.162'
p135
aS'128.10.2.5'
p136
asS'li'
p137
(lp138
S'130.59.31.42'
p139
aS'130.59.31.44'
p140
aS'147.28.0.39'
p141
aS'200.160.0.5'
p142
aS'194.0.17.1'
p143
aS'194.146.106.14'
p144
aS'194.0.1.40'
p145
aS'85.119.5.230'
p146
asS'lv'
p147
(lp148
S'194.0.48.1'
p149
aS'92.240.70.1'
p150
aS'194.0.1.24'
p151
aS'194.0.8.1'
p152
aS'192.36.125.2'
p153
asS'to'
p154
(lp155
S'216.74.32.104'
p156
aS'216.74.32.100'
p157
aS'162.243.211.202'
p158
aS'46.101.233.168'
p159
aS'188.166.187.0'
p160
asS'lt'
p161
(lp162
S'195.8.218.131'
p163
aS'194.0.20.1'
p164
aS'194.0.1.4'
p165
aS'194.0.3.1'
p166
aS'194.0.18.1'
p167
aS'194.0.19.1'
p168
asS'lu'
p169
(lp170
S'194.0.23.5'
p171
aS'194.146.106.66'
p172
aS'77.72.229.247'
p173
aS'194.0.1.13'
p174
aS'194.0.42.42'
p175
aS'158.64.229.18'
p176
asS'tj'
p177
(lp178
S'193.0.9.117'
p179
aS'91.218.160.197'
p180
aS'193.111.11.4'
p181
aS'128.223.32.35'
p182
asS'th'
p183
(lp184
S'122.155.23.64'
p185
aS'203.159.64.64'
p186
aS'194.0.1.28'
p187
aS'202.28.0.1'
p188
aS'199.6.1.30'
p189
aS'149.20.64.3'
p190
asS'tc'
p191
(lp192
S'31.169.81.225'
p193
aS'77.79.104.226'
p194
aS'77.79.104.225'
p195
aS'31.169.81.226'
p196
aS'95.173.188.6'
p197
aS'166.78.254.145'
p198
aS'119.9.93.69'
p199
aS'162.13.87.182'
p200
asS'ly'
p201
(lp202
S'62.240.36.9'
p203
aS'204.61.216.67'
p204
aS'62.68.42.9'
p205
aS'196.216.168.24'
p206
aS'128.223.32.35'
p207
asS'do'
p208
(lp209
S'200.16.91.228'
p210
aS'200.16.91.226'
p211
aS'200.16.90.162'
p212
aS'149.20.61.87'
p213
aS'200.33.111.1'
p214
aS'128.223.32.35'
p215
aS'192.5.4.1'
p216
asS'dk'
p217
(lp218
S'212.88.78.122'
p219
aS'193.163.102.222'
p220
aS'194.0.46.53'
p221
aS'192.38.7.242'
p222
aS'194.0.47.42'
p223
aS'193.176.144.15'
p224
asS'bid'
p225
(lp226
S'156.154.144.25'
p227
aS'156.154.145.25'
p228
aS'156.154.159.25'
p229
aS'156.154.156.25'
p230
aS'156.154.157.25'
p231
aS'156.154.158.25'
p232
asS'de'
p233
(lp234
S'194.0.0.53'
p235
aS'81.91.164.5'
p236
aS'77.67.63.105'
p237
aS'194.146.107.6'
p238
aS'195.243.137.26'
p239
aS'194.246.96.1'
p240
asS'me'
p241
(lp242
S'199.253.59.1'
p243
aS'199.249.119.1'
p244
aS'199.253.60.1'
p245
aS'199.249.127.1'
p246
aS'199.253.61.1'
p247
asS'biz'
p248
(lp249
S'156.154.124.65'
p250
aS'156.154.125.65'
p251
aS'156.154.127.65'
p252
aS'156.154.126.65'
p253
aS'209.173.58.66'
p254
aS'156.154.128.65'
p255
asS'press'
p256
(lp257
S'194.169.218.34'
p258
aS'185.24.64.34'
p259
aS'185.38.99.3'
p260
aS'108.59.161.3'
p261
asS'uy'
p262
(lp263
S'164.73.128.5'
p264
aS'164.73.128.70'
p265
aS'65.22.41.1'
p266
aS'200.160.0.5'
p267
aS'200.40.30.254'
p268
aS'200.40.220.254'
p269
aS'200.33.111.1'
p270
aS'192.5.4.1'
p271
asS'one'
p272
(lp273
S'37.209.192.9'
p274
aS'37.209.194.9'
p275
aS'37.209.196.9'
p276
aS'37.209.198.9'
p277
asS'yt'
p278
(lp279
S'192.5.4.2'
p280
aS'194.0.9.1'
p281
aS'193.176.144.22'
p282
aS'194.146.106.46'
p283
aS'194.0.36.1'
p284
asS'ro'
p285
(lp286
S'78.104.145.6'
p287
aS'81.91.161.99'
p288
aS'192.5.4.1'
p289
aS'192.162.16.18'
p290
aS'192.162.16.20'
p291
aS'193.230.31.230'
p292
asS'name'
p293
(lp294
S'192.82.135.30'
p295
aS'192.82.136.30'
p296
aS'192.82.137.30'
p297
aS'192.82.138.30'
p298
asS'xyz'
p299
(lp300
S'194.169.218.42'
p301
aS'185.24.64.42'
p302
aS'212.18.248.42'
p303
aS'212.18.249.42'
p304
asS'qa'
p305
(lp306
S'178.23.16.104'
p307
aS'178.23.17.104'
p308
aS'212.77.192.10'
p309
aS'212.77.192.13'
p310
aS'37.209.192.6'
p311
aS'37.209.194.6'
p312
aS'204.61.216.62'
p313
asS'wiki'
p314
(lp315
S'194.169.218.30'
p316
aS'185.24.64.30'
p317
aS'212.18.248.30'
p318
aS'212.18.249.30'
p319
asS'zm'
p320
(lp321
S'196.46.192.26'
p322
aS'196.46.192.21'
p323
aS'204.61.216.73'
p324
aS'196.216.168.44'
p325
asS'porn'
p326
(lp327
S'199.115.152.1'
p328
aS'199.115.156.1'
p329
aS'199.115.153.1'
p330
aS'199.115.157.1'
p331
aS'199.115.154.1'
p332
aS'199.115.155.1'
p333
asS'ee'
p334
(lp335
S'194.146.106.110'
p336
aS'204.61.216.36'
p337
aS'213.184.51.122'
p338
aS'193.40.132.5'
p339
aS'195.43.87.10'
p340
asS'eg'
p341
(lp342
S'193.171.255.77'
p343
aS'147.28.0.39'
p344
aS'193.227.1.1'
p345
asS'za'
p346
(lp347
S'194.146.106.78'
p348
aS'196.4.160.27'
p349
aS'204.61.216.55'
p350
aS'192.5.4.1'
p351
asS'ec'
p352
(lp353
S'200.0.68.10'
p354
aS'200.12.199.1'
p355
aS'204.61.216.39'
p356
aS'192.5.4.1'
p357
asS'eu'
p358
(lp359
S'185.151.141.1'
p360
aS'194.146.106.90'
p361
aS'162.88.56.1'
p362
aS'93.190.128.138'
p363
aS'91.200.16.100'
p364
aS'193.2.221.60'
p365
aS'195.66.241.178'
p366
asS'et'
p367
(lp368
S'213.55.64.36'
p369
aS'213.55.64.38'
p370
aS'128.223.32.35'
p371
asS'es'
p372
(lp373
S'194.69.254.1'
p374
aS'130.206.1.7'
p375
aS'204.61.217.1'
p376
aS'84.88.0.3'
p377
aS'192.134.0.49'
p378
aS'200.1.123.14'
p379
aS'192.5.4.1'
p380
asS'ru'
p381
(lp382
S'193.232.128.6'
p383
aS'194.85.252.62'
p384
aS'194.190.124.17'
p385
aS'193.232.142.17'
p386
aS'193.232.156.17'
p387
asS'rs'
p388
(lp389
S'91.199.17.59'
p390
aS'195.178.32.2'
p391
aS'204.61.216.32'
p392
aS'147.91.8.6'
p393
aS'91.199.17.60'
p394
aS'192.5.4.1'
p395
aS'194.146.106.114'
p396
asS're'
p397
(lp398
S'192.5.4.2'
p399
aS'194.0.9.1'
p400
aS'193.176.144.22'
p401
aS'194.146.106.46'
p402
aS'194.0.36.1'
p403
asS'it'
p404
(lp405
S'194.0.16.215'
p406
aS'217.29.76.4'
p407
aS'193.206.141.46'
p408
aS'194.146.106.30'
p409
aS'192.12.192.5'
p410
aS'194.119.192.34'
p411
asS'net'
p412
(lp413
S'192.5.6.30'
p414
aS'192.33.14.30'
p415
aS'192.26.92.30'
p416
aS'192.31.80.30'
p417
aS'192.12.94.30'
p418
aS'192.35.51.30'
p419
aS'192.42.93.30'
p420
aS'192.54.112.30'
p421
aS'192.43.172.30'
p422
aS'192.48.79.30'
p423
aS'192.52.178.30'
p424
aS'192.41.162.30'
p425
aS'192.55.83.30'
p426
asS'gov'
p427
(lp428
S'69.36.157.30'
p429
aS'209.112.123.30'
p430
aS'69.36.153.30'
p431
aS'81.19.194.30'
p432
asS'bd'
p433
(lp434
S'123.49.12.112'
p435
aS'204.61.216.108'
p436
aS'203.112.194.232'
p437
aS'203.112.194.231'
p438
asS'be'
p439
(lp440
S'194.0.6.1'
p441
aS'194.0.37.1'
p442
aS'194.0.43.1'
p443
aS'194.0.44.1'
p444
aS'194.0.1.10'
p445
aS'120.29.253.8'
p446
asS'bg'
p447
(lp448
S'192.92.129.99'
p449
aS'193.68.3.232'
p450
aS'193.68.99.99'
p451
aS'194.0.32.1'
p452
aS'185.143.80.1'
p453
aS'192.5.4.1'
p454
asS'ba'
p455
(lp456
S'185.38.108.108'
p457
aS'195.130.35.5'
p458
aS'204.61.216.117'
p459
aS'195.130.35.3'
p460
aS'198.6.1.83'
p461
aS'202.29.151.3'
p462
asS'jp'
p463
(lp464
S'203.119.1.1'
p465
aS'202.12.30.131'
p466
aS'156.154.100.5'
p467
aS'210.138.175.244'
p468
aS'192.50.43.53'
p469
aS'150.100.6.8'
p470
aS'203.119.40.1'
p471
aS'65.22.40.25'
p472
asS'bn'
p473
(lp474
S'194.0.1.33'
p475
aS'202.93.214.163'
p476
aS'203.119.43.53'
p477
aS'204.61.216.87'
p478
asS'bh'
p479
(lp480
S'193.188.97.197'
p481
aS'193.188.97.212'
p482
aS'193.188.97.193'
p483
aS'193.188.97.209'
p484
asS'pub'
p485
(lp486
S'37.209.194.7'
p487
aS'37.209.192.7'
p488
aS'37.209.198.7'
p489
aS'37.209.196.7'
p490
asS'bw'
p491
(lp492
S'204.61.216.70'
p493
aS'168.167.98.226'
p494
aS'168.167.98.218'
p495
aS'196.216.168.72'
p496
aS'168.167.168.37'
p497
asS'ws'
p498
(lp499
S'64.70.19.80'
p500
aS'173.228.153.149'
p501
aS'173.228.153.148'
p502
aS'64.70.19.70'
p503
aS'77.92.65.172'
p504
aS'77.92.65.174'
p505
asS'br'
p506
(lp507
S'200.160.0.10'
p508
aS'200.189.41.10'
p509
aS'200.192.233.10'
p510
aS'200.219.154.10'
p511
aS'200.229.248.10'
p512
aS'200.219.159.10'
p513
asS'news'
p514
(lp515
S'37.209.194.7'
p516
aS'37.209.192.7'
p517
aS'37.209.198.7'
p518
aS'37.209.196.7'
p519
asS'by'
p520
(lp521
S'178.172.160.20'
p522
aS'93.125.30.44'
p523
aS'195.209.35.70'
p524
aS'62.212.73.101'
p525
aS'46.165.217.94'
p526
aS'108.59.8.66'
p527
aS'128.199.68.43'
p528
asS'bz'
p529
(lp530
S'199.254.59.1'
p531
aS'199.249.116.1'
p532
aS'199.254.60.1'
p533
aS'199.249.124.1'
p534
aS'199.254.61.1'
p535
aS'199.254.62.1'
p536
asS'box'
p537
(lp538
S'37.209.192.10'
p539
aS'37.209.194.10'
p540
aS'37.209.196.10'
p541
aS'37.209.198.10'
p542
asS'ua'
p543
(lp544
S'194.0.1.9'
p545
aS'216.218.215.27'
p546
aS'195.47.253.1'
p547
aS'204.61.216.12'
p548
aS'192.5.4.1'
p549
asS'jo'
p550
(lp551
S'193.0.9.83'
p552
aS'147.28.0.39'
p553
aS'193.188.66.103'
p554
aS'193.188.66.2'
p555
aS'193.188.69.19'
p556
asS'games'
p557
(lp558
S'37.209.194.7'
p559
aS'37.209.192.7'
p560
aS'37.209.198.7'
p561
aS'37.209.196.7'
p562
asS'ltd'
p563
(lp564
S'37.209.194.7'
p565
aS'37.209.192.7'
p566
aS'37.209.198.7'
p567
aS'37.209.196.7'
p568
asS'mz'
p569
(lp570
S'204.61.216.14'
p571
aS'196.3.96.66'
p572
aS'196.216.168.40'
p573
aS'196.3.96.67'
p574
aS'196.3.96.69'
p575
aS'128.223.32.35'
p576
asS'com'
p577
(lp578
S'192.5.6.30'
p579
aS'192.33.14.30'
p580
aS'192.26.92.30'
p581
aS'192.31.80.30'
p582
aS'192.12.94.30'
p583
aS'192.35.51.30'
p584
aS'192.42.93.30'
p585
aS'192.54.112.30'
p586
aS'192.43.172.30'
p587
aS'192.48.79.30'
p588
aS'192.52.178.30'
p589
aS'192.41.162.30'
p590
aS'192.55.83.30'
p591
asS'bnpparibas'
p592
(lp593
S'65.22.64.9'
p594
aS'65.22.67.9'
p595
aS'65.22.65.9'
p596
aS'65.22.66.9'
p597
asS'uno'
p598
(lp599
S'156.154.144.173'
p600
aS'156.154.145.173'
p601
aS'156.154.159.173'
p602
aS'156.154.156.173'
p603
aS'156.154.157.173'
p604
aS'156.154.158.173'
p605
asS'ch'
p606
(lp607
S'130.59.31.41'
p608
aS'130.59.31.43'
p609
aS'147.28.0.39'
p610
aS'200.160.0.5'
p611
aS'194.0.17.1'
p612
aS'194.146.106.10'
p613
aS'194.0.1.40'
p614
aS'85.119.5.230'
p615
asS'co'
p616
(lp617
S'156.154.100.25'
p618
aS'156.154.101.25'
p619
aS'156.154.102.25'
p620
aS'156.154.103.25'
p621
aS'156.154.104.25'
p622
aS'156.154.105.25'
p623
asS'cn'
p624
(lp625
S'203.119.25.1'
p626
aS'203.119.26.1'
p627
aS'203.119.27.1'
p628
aS'203.119.28.1'
p629
aS'203.119.29.1'
p630
aS'202.112.0.44'
p631
asS'cm'
p632
(lp633
S'156.106.192.121'
p634
aS'195.24.192.35'
p635
aS'195.24.192.34'
p636
aS'198.6.1.82'
p637
aS'195.24.192.17'
p638
asS'cl'
p639
(lp640
S'190.124.27.10'
p641
aS'200.7.4.7'
p642
aS'200.16.112.16'
p643
aS'194.146.106.34'
p644
aS'204.61.216.30'
p645
aS'192.5.4.1'
p646
asS'cc'
p647
(lp648
S'192.42.173.30'
p649
aS'192.42.174.30'
p650
aS'192.42.175.30'
p651
aS'192.42.176.30'
p652
asS'ca'
p653
(lp654
S'185.159.196.2'
p655
aS'199.19.4.1'
p656
aS'198.182.167.1'
p657
aS'199.4.144.2'
p658
asS'cg'
p659
(lp660
S'192.36.125.2'
p661
aS'151.80.35.161'
p662
aS'41.185.30.170'
p663
asS'cd'
p664
(lp665
S'196.25.1.1'
p666
aS'196.43.1.9'
p667
aS'196.25.1.9'
p668
aS'41.79.235.66'
p669
aS'41.79.235.67'
p670
aS'92.222.179.91'
p671
asS'cz'
p672
(lp673
S'194.0.12.1'
p674
aS'194.0.13.1'
p675
aS'194.0.14.1'
p676
aS'193.29.206.1'
p677
asS'cy'
p678
(lp679
S'194.42.1.50'
p680
aS'194.42.1.55'
p681
aS'194.42.20.50'
p682
aS'204.70.57.242'
p683
aS'202.12.28.140'
p684
aS'204.61.216.44'
p685
aS'194.42.29.1'
p686
aS'139.91.191.3'
p687
asS'org'
p688
(lp689
S'199.19.56.1'
p690
aS'199.249.112.1'
p691
aS'199.19.54.1'
p692
aS'199.249.120.1'
p693
aS'199.19.53.1'
p694
aS'199.19.57.1'
p695
asS'cu'
p696
(lp697
S'193.0.9.70'
p698
aS'200.160.0.5'
p699
aS'169.158.128.136'
p700
aS'204.59.1.222'
p701
aS'169.158.128.88'
p702
aS'147.28.0.39'
p703
asS'pr'
p704
(lp705
S'199.254.59.17'
p706
aS'199.249.116.17'
p707
aS'199.254.60.17'
p708
aS'199.249.124.17'
p709
aS'199.254.61.17'
p710
aS'199.254.62.17'
p711
asS'tn'
p712
(lp713
S'41.228.62.63'
p714
aS'41.228.63.62'
p715
aS'192.93.0.4'
p716
aS'204.61.216.94'
p717
aS'147.28.0.39'
p718
aS'196.216.168.25'
p719
asS'pw'
p720
(lp721
S'194.169.218.12'
p722
aS'185.24.64.12'
p723
aS'185.38.99.11'
p724
aS'108.59.161.11'
p725
asS'pt'
p726
(lp727
S'185.39.208.1'
p728
aS'194.0.25.23'
p729
aS'204.61.216.105'
p730
aS'185.39.210.1'
p731
aS'193.136.192.64'
p732
aS'200.160.0.5'
p733
aS'193.136.2.226'
p734
aS'192.93.0.4'
p735
aS'192.5.4.1'
p736
asS'top'
p737
(lp738
S'1.8.240.1'
p739
aS'1.8.241.1'
p740
aS'1.8.242.1'
p741
aS'1.8.243.1'
p742
aS'119.167.248.154'
p743
aS'182.131.23.22'
p744
aS'42.62.2.16'
p745
asS'py'
p746
(lp747
S'200.160.0.5'
p748
aS'130.59.31.30'
p749
aS'200.0.68.10'
p750
aS'200.33.111.1'
p751
aS'204.61.216.107'
p752
aS'198.6.1.65'
p753
asS'lol'
p754
(lp755
S'64.96.1.1'
p756
aS'64.96.245.53'
p757
aS'185.159.197.3'
p758
aS'185.159.198.3'
p759
asS'iq'
p760
(lp761
S'194.117.57.100'
p762
aS'199.19.5.8'
p763
aS'199.19.6.8'
p764
aS'192.5.4.1'
p765
aS'194.117.58.42'
p766
asS'tm'
p767
(lp768
S'194.0.1.22'
p769
aS'194.0.2.22'
p770
aS'74.116.178.22'
p771
aS'74.116.179.22'
p772
aS'64.251.31.180'
p773
aS'80.249.100.44'
p774
aS'91.208.95.22'
p775
asS'pg'
p776
(lp777
S'137.39.1.3'
p778
aS'202.165.192.23'
p779
aS'202.1.32.49'
p780
aS'202.165.192.24'
p781
aS'202.29.151.3'
p782
asS'pe'
p783
(lp784
S'204.61.216.85'
p785
aS'194.146.106.82'
p786
aS'200.1.176.4'
p787
aS'192.5.4.1'
p788
asS'pk'
p789
(lp790
S'162.252.84.2'
p791
aS'107.6.141.90'
p792
aS'199.192.75.54'
p793
aS'119.81.34.90'
p794
asS'ph'
p795
(lp796
S'206.51.255.1'
p797
aS'194.0.1.23'
p798
aS'137.189.6.21'
p799
aS'203.119.43.53'
p800
aS'192.5.4.1'
p801
asS'pro'
p802
(lp803
S'199.182.0.1'
p804
aS'199.182.32.1'
p805
aS'199.182.1.1'
p806
aS'199.182.40.1'
p807
aS'199.182.16.1'
p808
aS'199.182.17.1'
p809
asS'pl'
p810
(lp811
S'194.181.87.156'
p812
aS'192.195.72.53'
p813
aS'93.190.128.146'
p814
aS'81.15.133.186'
p815
aS'46.28.245.82'
p816
aS'77.79.212.238'
p817
aS'149.156.1.252'
p818
aS'194.0.1.2'
p819
aS'156.154.100.15'
p820
asS'bradesco'
p821
(lp822
S'213.248.217.37'
p823
aS'103.49.81.37'
p824
aS'213.248.221.37'
p825
aS'43.230.49.37'
p826
aS'156.154.100.3'
p827
aS'156.154.101.3'
p828
aS'156.154.102.3'
p829
aS'156.154.103.3'
p830
asS'club'
p831
(lp832
S'156.154.144.215'
p833
aS'156.154.145.215'
p834
aS'156.154.159.215'
p835
aS'156.154.156.215'
p836
aS'156.154.157.215'
p837
aS'156.154.158.215'
p838
asS'ooo'
p839
(lp840
S'192.42.173.30'
p841
aS'192.42.174.30'
p842
aS'192.42.175.30'
p843
aS'192.42.176.30'
p844
asS'xxx'
p845
(lp846
S'199.115.152.1'
p847
aS'199.115.156.1'
p848
aS'199.115.153.1'
p849
aS'199.115.157.1'
p850
aS'199.115.154.1'
p851
aS'199.115.155.1'
p852
asS'ht'
p853
(lp854
S'199.19.5.7'
p855
aS'199.19.6.7'
p856
aS'192.134.0.49'
p857
aS'204.61.216.38'
p858
aS'132.207.144.2'
p859
asS'hu'
p860
(lp861
S'193.239.148.1'
p862
aS'193.239.149.161'
p863
aS'193.6.16.1'
p864
aS'195.70.35.250'
p865
aS'194.0.25.11'
p866
aS'192.93.0.4'
p867
aS'194.0.1.12'
p868
asS'hk'
p869
(lp870
S'203.119.2.218'
p871
aS'203.119.87.218'
p872
aS'210.201.138.58'
p873
aS'204.61.216.46'
p874
aS'202.12.28.140'
p875
aS'202.45.188.39'
p876
aS'137.189.6.21'
p877
aS'194.146.106.70'
p878
asS'sx'
p879
(lp880
S'185.159.197.10'
p881
aS'185.159.198.10'
p882
asS'hn'
p883
(lp884
S'192.5.4.1'
p885
aS'204.61.216.64'
p886
aS'200.33.111.1'
p887
asS'adult'
p888
(lp889
S'199.115.152.1'
p890
aS'199.115.156.1'
p891
aS'199.115.153.1'
p892
aS'199.115.157.1'
p893
aS'199.115.154.1'
p894
aS'199.115.155.1'
p895
asS'info'
p896
(lp897
S'199.254.31.1'
p898
aS'199.249.113.1'
p899
aS'199.254.48.1'
p900
aS'199.249.121.1'
p901
aS'199.254.49.1'
p902
aS'199.254.50.1'
p903
asS'mg'
p904
(lp905
S'199.19.5.24'
p906
aS'199.19.6.24'
p907
aS'196.192.32.2'
p908
aS'196.192.42.153'
p909
aS'87.98.132.231'
p910
aS'91.203.32.147'
p911
asS'ma'
p912
(lp913
S'193.51.208.13'
p914
aS'81.192.171.83'
p915
aS'192.93.0.4'
p916
aS'81.192.171.132'
p917
aS'81.192.171.139'
p918
aS'81.192.171.140'
p919
aS'192.5.4.1'
p920
asS'uz'
p921
(lp922
S'91.212.89.8'
p923
aS'81.95.224.158'
p924
aS'195.158.1.22'
p925
aS'83.69.138.230'
p926
aS'217.12.81.129'
p927
aS'83.69.129.4'
p928
aS'104.238.81.247'
p929
asS'mm'
p930
(lp931
S'193.0.9.96'
p932
aS'203.81.64.20'
p933
aS'203.81.81.85'
p934
aS'203.81.92.10'
p935
asS'us'
p936
(lp937
S'156.154.124.70'
p938
aS'156.154.125.70'
p939
aS'156.154.127.70'
p940
aS'156.154.126.70'
p941
aS'209.173.58.70'
p942
aS'156.154.128.70'
p943
asS'cat'
p944
(lp945
S'84.88.0.162'
p946
aS'204.61.216.20'
p947
aS'194.69.254.1'
p948
aS'194.0.11.110'
p949
aS'195.253.64.4'
p950
aS'192.5.4.1'
p951
aS'130.59.31.29'
p952
asS'mp'
p953
(lp954
S'202.128.29.2'
p955
aS'202.128.29.135'
p956
aS'75.101.129.89'
p957
aS'75.101.133.101'
p958
asS'uk'
p959
(lp960
S'156.154.100.3'
p961
aS'156.154.101.3'
p962
aS'156.154.102.3'
p963
aS'156.154.103.3'
p964
aS'213.248.216.1'
p965
aS'103.49.80.1'
p966
aS'213.248.220.1'
p967
aS'43.230.48.1'
p968
asS'site'
p969
(lp970
S'194.169.218.61'
p971
aS'185.24.64.61'
p972
aS'185.38.99.5'
p973
aS'108.59.161.5'
p974
asS'im'
p975
(lp976
S'193.62.157.66'
p977
aS'217.23.163.140'
p978
aS'217.23.160.50'
p979
aS'80.168.83.242'
p980
asS'my'
p981
(lp982
S'49.236.194.202'
p983
aS'202.171.47.204'
p984
aS'137.189.6.21'
p985
aS'194.0.1.30'
p986
aS'192.134.0.49'
p987
asS'mx'
p988
(lp989
S'192.100.224.1'
p990
aS'189.201.244.1'
p991
aS'207.248.68.1'
p992
aS'200.94.176.1'
p993
aS'200.23.1.1'
p994
aS'201.131.252.1'
p995
asS'il'
p996
(lp997
S'194.146.106.122'
p998
aS'162.88.57.1'
p999
aS'194.0.11.103'
p1000
aS'192.115.7.53'
p1001
aS'192.115.7.60'
p1002
aS'192.115.141.253'
p1003
aS'128.139.35.5'
p1004
aS'128.139.34.240'
p1005
aS'192.5.4.1'
p1006
asS'ac'
p1007
(lp1008
S'65.22.160.1'
p1009
aS'65.22.163.1'
p1010
aS'65.22.161.1'
p1011
aS'65.22.162.1'
p1012
aS'194.0.1.1'
p1013
aS'74.116.178.1'
p1014
asS'vc'
p1015
(lp1016
S'199.254.59.1'
p1017
aS'199.249.116.1'
p1018
aS'199.254.60.1'
p1019
aS'199.249.124.1'
p1020
aS'199.254.61.1'
p1021
aS'199.254.62.1'
p1022
asS'ae'
p1023
(lp1024
S'79.98.120.73'
p1025
aS'79.98.121.73'
p1026
aS'202.12.28.140'
p1027
aS'192.5.4.1'
p1028
aS'199.4.137.1'
p1029
asS've'
p1030
(lp1031
S'150.188.228.4'
p1032
aS'150.188.228.5'
p1033
aS'190.9.129.56'
p1034
aS'190.202.128.43'
p1035
aS'200.1.123.14'
p1036
aS'192.5.4.1'
p1037
aS'150.185.130.16'
p1038
asS'ag'
p1039
(lp1040
S'199.254.59.1'
p1041
aS'199.249.116.1'
p1042
aS'199.254.60.1'
p1043
aS'199.249.124.1'
p1044
aS'199.254.61.1'
p1045
aS'199.254.62.1'
p1046
asS'af'
p1047
(lp1048
S'199.19.5.1'
p1049
aS'199.19.6.1'
p1050
aS'204.61.216.13'
p1051
asS'int'
p1052
(lp1053
S'199.43.135.53'
p1054
aS'199.43.133.53'
p1055
aS'199.43.134.53'
p1056
aS'137.39.1.3'
p1057
aS'128.86.1.20'
p1058
aS'193.0.9.4'
p1059
asS'is'
p1060
(lp1061
S'204.61.216.116'
p1062
aS'194.146.106.58'
p1063
aS'192.36.125.2'
p1064
aS'130.208.16.20'
p1065
aS'193.4.58.51'
p1066
aS'192.5.4.1'
p1067
asS'ir'
p1068
(lp1069
S'193.189.123.2'
p1070
aS'193.189.122.83'
p1071
aS'193.0.9.85'
p1072
aS'193.171.255.77'
p1073
asS'am'
p1074
(lp1075
S'77.72.229.254'
p1076
aS'194.0.1.26'
p1077
aS'204.61.216.96'
p1078
aS'195.43.75.53'
p1079
aS'192.5.4.1'
p1080
asS'al'
p1081
(lp1082
S'194.1.149.230'
p1083
aS'194.0.11.108'
p1084
aS'147.28.0.39'
p1085
aS'202.29.151.3'
p1086
asS'ao'
p1087
(lp1088
S'185.39.208.17'
p1089
aS'204.61.216.113'
p1090
aS'197.149.149.11'
p1091
aS'198.6.1.82'
p1092
aS'204.152.184.64'
p1093
aS'192.5.4.1'
p1094
asS'ar'
p1095
(lp1096
S'200.108.145.50'
p1097
aS'200.108.147.50'
p1098
aS'200.108.148.50'
p1099
aS'170.238.66.50'
p1100
aS'193.0.9.59'
p1101
aS'130.59.31.29'
p1102
asS'au'
p1103
(lp1104
S'58.65.254.73'
p1105
aS'58.65.253.73'
p1106
aS'65.22.196.1'
p1107
aS'65.22.197.1'
p1108
aS'65.22.198.1'
p1109
aS'65.22.199.1'
p1110
aS'211.29.133.32'
p1111
aS'203.119.43.53'
p1112
aS'37.209.192.5'
p1113
aS'37.209.194.5'
p1114
aS'37.209.196.5'
p1115
aS'37.209.198.5'
p1116
asS'at'
p1117
(lp1118
S'81.91.161.98'
p1119
aS'194.146.106.50'
p1120
aS'81.91.173.130'
p1121
aS'194.0.25.10'
p1122
aS'195.66.241.82'
p1123
aS'78.104.144.2'
p1124
aS'192.92.125.2'
p1125
aS'194.0.10.100'
p1126
asS'io'
p1127
(lp1128
S'65.22.160.17'
p1129
aS'65.22.163.17'
p1130
aS'65.22.161.17'
p1131
aS'65.22.162.17'
p1132
aS'194.0.1.1'
p1133
aS'74.116.178.1'
p1134
asS'in'
p1135
(lp1136
S'199.7.87.1'
p1137
aS'115.249.164.142'
p1138
aS'199.249.117.1'
p1139
aS'199.253.56.1'
p1140
aS'180.179.215.70'
p1141
aS'199.249.125.1'
p1142
aS'199.253.57.1'
p1143
asS'az'
p1144
(lp1145
S'195.47.253.13'
p1146
aS'147.28.0.39'
p1147
asS'ie'
p1148
(lp1149
S'77.72.72.44'
p1150
aS'77.72.72.34'
p1151
aS'194.146.106.98'
p1152
aS'77.72.229.245'
p1153
aS'199.19.2.1'
p1154
aS'199.19.3.1'
p1155
aS'192.111.39.100'
p1156
aS'192.93.0.4'
p1157
asS'id'
p1158
(lp1159
S'202.155.30.227'
p1160
aS'103.19.179.179'
p1161
aS'103.19.178.178'
p1162
aS'103.19.177.177'
p1163
aS'202.12.28.140'
p1164
asS'film'
p1165
(lp1166
S'37.209.192.10'
p1167
aS'37.209.194.10'
p1168
aS'37.209.196.10'
p1169
aS'37.209.198.10'
p1170
asS'pink'
p1171
(lp1172
S'65.22.28.17'
p1173
aS'65.22.31.17'
p1174
aS'65.22.29.17'
p1175
aS'65.22.30.17'
p1176
asS'ni'
p1177
(lp1178
S'165.98.1.2'
p1179
aS'137.39.1.3'
p1180
aS'200.85.160.2'
p1181
aS'200.62.64.1'
p1182
aS'186.1.31.8'
p1183
aS'200.9.187.2'
p1184
asS'nl'
p1185
(lp1186
S'194.146.106.42'
p1187
aS'193.176.144.5'
p1188
aS'213.154.241.85'
p1189
aS'194.171.17.10'
p1190
aS'95.142.99.212'
p1191
aS'194.0.28.53'
p1192
aS'192.93.0.4'
p1193
aS'192.5.4.1'
p1194
asS'no'
p1195
(lp1196
S'194.146.106.6'
p1197
aS'128.39.8.40'
p1198
aS'193.75.4.22'
p1199
aS'158.38.8.133'
p1200
aS'156.154.100.12'
p1201
aS'156.154.101.12'
p1202
asS'media'
p1203
(lp1204
S'37.209.194.7'
p1205
aS'37.209.192.7'
p1206
aS'37.209.198.7'
p1207
aS'37.209.196.7'
p1208
asS'ng'
p1209
(lp1210
S'194.0.1.29'
p1211
aS'204.61.216.40'
p1212
aS'196.216.168.41'
p1213
aS'41.222.79.3'
p1214
asS'hr'
p1215
(lp1216
S'204.61.216.90'
p1217
aS'192.5.4.1'
p1218
aS'161.53.160.100'
p1219
asS'nz'
p1220
(lp1221
S'202.46.190.130'
p1222
aS'202.46.187.130'
p1223
aS'202.46.188.130'
p1224
aS'202.46.189.130'
p1225
aS'185.159.197.130'
p1226
aS'185.159.198.130'
p1227
aS'194.146.106.54'
p1228
asS'best'
p1229
(lp1230
S'156.154.144.24'
p1231
aS'156.154.145.24'
p1232
aS'156.154.159.24'
p1233
aS'156.154.156.24'
p1234
aS'156.154.157.24'
p1235
aS'156.154.158.24'
p1236
asS'vn'
p1237
(lp1238
S'194.0.1.18'
p1239
aS'203.119.73.105'
p1240
aS'203.119.38.105'
p1241
aS'203.119.44.105'
p1242
aS'203.119.60.105'
p1243
aS'203.119.68.105'
p1244
aS'204.61.216.115'
p1245
asS'online'
p1246
(lp1247
S'194.169.218.54'
p1248
aS'185.24.64.54'
p1249
aS'185.38.99.7'
p1250
aS'108.59.161.7'
p1251
asS'np'
p1252
(lp1253
S'193.0.9.102'
p1254
aS'202.12.28.140'
p1255
aS'198.32.126.50'
p1256
aS'204.61.216.11'
p1257
aS'204.152.184.64'
p1258
aS'202.52.255.5'
p1259
aS'192.189.54.17'
p1260
asS'nu'
p1261
(lp1262
S'194.146.106.22'
p1263
aS'65.22.164.1'
p1264
aS'192.36.144.107'
p1265
aS'213.108.25.4'
p1266
asS'fr'
p1267
(lp1268
S'192.5.4.2'
p1269
aS'194.0.9.1'
p1270
aS'193.176.144.22'
p1271
aS'194.146.106.46'
p1272
aS'194.0.36.1'
p1273
asS'fyi'
p1274
(lp1275
S'37.209.194.7'
p1276
aS'37.209.192.7'
p1277
aS'37.209.198.7'
p1278
aS'37.209.196.7'
p1279
asS'kz'
p1280
(lp1281
S'194.0.21.5'
p1282
aS'185.79.212.7'
p1283
asS'fi'
p1284
(lp1285
S'193.166.4.1'
p1286
aS'194.146.106.26'
p1287
aS'194.0.11.104'
p1288
aS'77.72.229.253'
p1289
aS'194.0.1.14'
p1290
aS'87.239.127.198'
p1291
aS'204.61.216.98'
p1292
aS'87.239.120.11'
p1293
aS'162.88.44.1'
p1294
asS'fm'
p1295
(lp1296
S'204.74.112.1'
p1297
aS'204.74.113.1'
p1298
aS'199.7.66.1'
p1299
aS'199.7.67.1'
p1300
aS'192.100.59.11'
p1301
aS'198.133.199.11'
p1302
asS'fo'
p1303
(lp1304
S'194.169.218.27'
p1305
aS'185.24.64.27'
p1306
aS'212.18.248.27'
p1307
aS'212.18.249.27'
p1308
asS'sexy'
p1309
(lp1310
S'64.96.1.1'
p1311
aS'64.96.245.53'
p1312
aS'185.159.197.3'
p1313
aS'185.159.198.3'
p1314
asS'mobi'
p1315
(lp1316
S'199.254.55.1'
p1317
aS'199.249.118.1'
p1318
aS'199.254.56.1'
p1319
aS'199.249.126.1'
p1320
aS'199.254.57.1'
p1321
aS'199.254.58.1'
p1322
asS'ke'
p1323
(lp1324
S'204.61.216.7'
p1325
aS'66.135.46.112'
p1326
aS'185.28.194.194'
p1327
aS'198.32.67.9'
p1328
aS'196.216.168.22'
p1329
asS'kh'
p1330
(lp1331
S'203.223.32.3'
p1332
aS'203.223.32.21'
p1333
aS'203.119.43.53'
p1334
aS'203.189.128.1'
p1335
asS'sv'
p1336
(lp1337
S'137.39.1.3'
p1338
aS'200.160.0.5'
p1339
aS'193.0.9.112'
p1340
aS'168.243.254.1'
p1341
aS'200.107.82.100'
p1342
aS'131.100.140.162'
p1343
aS'198.6.1.82'
p1344
asS'su'
p1345
(lp1346
S'193.232.128.6'
p1347
aS'194.85.252.62'
p1348
aS'194.190.124.17'
p1349
aS'193.232.142.17'
p1350
aS'193.232.156.17'
p1351
asS'st'
p1352
(lp1353
S'195.178.160.2'
p1354
aS'119.252.188.97'
p1355
aS'79.136.119.20'
p1356
aS'198.105.223.67'
p1357
asS'sk'
p1358
(lp1359
S'194.0.45.1'
p1360
aS'84.245.96.1'
p1361
aS'195.12.159.1'
p1362
aS'192.5.4.1'
p1363
asS'kr'
p1364
(lp1365
S'61.74.75.1'
p1366
aS'203.248.246.220'
p1367
aS'203.83.159.1'
p1368
aS'202.30.124.100'
p1369
aS'218.38.181.90'
p1370
aS'202.31.190.1'
p1371
asS'si'
p1372
(lp1373
S'194.249.4.44'
p1374
aS'192.93.0.4'
p1375
aS'194.146.106.62'
p1376
aS'194.0.1.20'
p1377
aS'204.61.216.54'
p1378
aS'194.0.25.22'
p1379
aS'108.59.164.1'
p1380
asS'sh'
p1381
(lp1382
S'65.22.160.9'
p1383
aS'65.22.163.9'
p1384
aS'65.22.161.9'
p1385
aS'65.22.162.9'
p1386
aS'194.0.1.1'
p1387
aS'74.116.178.1'
p1388
asS'kw'
p1389
(lp1390
S'199.19.5.25'
p1391
aS'199.19.6.25'
p1392
aS'204.61.216.118'
p1393
aS'202.12.29.59'
p1394
aS'192.5.4.1'
p1395
asS'sn'
p1396
(lp1397
S'196.1.95.1'
p1398
aS'193.0.9.111'
p1399
aS'213.154.64.11'
p1400
aS'192.134.0.49'
p1401
aS'91.203.32.147'
p1402
asS'sc'
p1403
(lp1404
S'199.254.59.1'
p1405
aS'199.249.116.1'
p1406
aS'199.254.60.1'
p1407
aS'199.249.124.1'
p1408
aS'199.254.61.1'
p1409
aS'199.254.62.1'
p1410
aS'41.86.57.54'
p1411
asS'dz'
p1412
(lp1413
S'193.194.64.242'
p1414
aS'213.179.160.66'
p1415
aS'192.134.0.49'
p1416
aS'204.61.216.103'
p1417
aS'193.0.9.71'
p1418
aS'196.216.168.36'
p1419
asS'sa'
p1420
(lp1421
S'37.107.223.170'
p1422
aS'37.107.255.170'
p1423
aS'212.26.18.3'
p1424
aS'86.111.192.9'
p1425
aS'86.111.196.9'
p1426
aS'194.146.106.102'
p1427
aS'204.61.216.41'
p1428
asS'audio'
p1429
(lp1430
S'64.96.1.1'
p1431
aS'64.96.245.53'
p1432
aS'185.159.197.3'
p1433
aS'185.159.198.3'
p1434
asS'sg'
p1435
(lp1436
S'137.189.6.21'
p1437
aS'202.12.28.140'
p1438
aS'194.0.11.106'
p1439
aS'204.61.216.57'
p1440
asS'se'
p1441
(lp1442
S'192.36.144.107'
p1443
aS'192.36.133.107'
p1444
aS'192.36.135.107'
p1445
aS'192.71.53.53'
p1446
aS'130.239.5.114'
p1447
aS'194.146.106.22'
p1448
aS'199.254.63.1'
p1449
aS'213.108.25.4'
p1450
as.