(dp0
S'gw'
p1
(lp2
S'185.39.208.19'
p3
aS'204.61.216.114'
p4
aS'192.5.4.1'
p5
asS'limited'
p6
(lp7
S'37.209.194.7'
p8
aS'37.209.192.7'
p9
aS'37.209.198.7'
p10
aS'37.209.196.7'
p11
asS'coach'
p12
(lp13
S'37.209.194.7'
p14
aS'37.209.192.7'
p15
aS'37.209.198.7'
p16
aS'37.209.196.7'
p17
asS'gs'
p18
(lp19
S'199.19.5.4'
p20
aS'199.19.6.4'
p21
aS'204.61.216.21'
p22
asS'gr'
p23
(lp24
S'194.0.1.25'
p25
aS'194.0.11.102'
p26
aS'194.0.4.10'
p27
aS'139.91.191.3'
p28
aS'78.104.145.227'
p29
aS'139.91.1.1'
p30
asS'gq'
p31
(lp32
S'185.21.168.65'
p33
aS'185.21.169.65'
p34
aS'185.21.170.65'
p35
aS'185.21.171.65'
p36
asS'gp'
p37
(lp38
S'193.0.9.76'
p39
aS'193.218.114.2'
p40
asS'dance'
p41
(lp42
S'37.209.194.7'
p43
aS'37.209.192.7'
p44
aS'37.209.198.7'
p45
aS'37.209.196.7'
p46
asS'global'
p47
(lp48
S'65.22.80.1'
p49
aS'65.22.83.1'
p50
aS'65.22.81.1'
p51
aS'65.22.82.1'
p52
asS'gy'
p53
(lp54
S'199.19.5.5'
p55
aS'199.19.6.5'
p56
aS'204.61.216.34'
p57
aS'128.223.32.35'
p58
aS'192.5.4.1'
p59
asS'gg'
p60
(lp61
S'194.146.106.86'
p62
aS'193.201.42.178'
p63
aS'204.61.216.74'
p64
aS'193.63.94.20'
p65
aS'202.46.190.131'
p66
asS'gf'
p67
(lp68
S'213.188.172.1'
p69
aS'213.16.20.3'
p70
asS'ge'
p71
(lp72
S'195.47.253.18'
p73
aS'137.39.1.3'
p74
aS'212.72.130.11'
p75
aS'192.93.0.4'
p76
asS'gt'
p77
(lp78
S'200.160.0.5'
p79
aS'200.33.111.1'
p80
aS'204.61.216.95'
p81
aS'192.5.4.1'
p82
asS'tours'
p83
(lp84
S'37.209.194.7'
p85
aS'37.209.192.7'
p86
aS'37.209.198.7'
p87
aS'37.209.196.7'
p88
asS'ga'
p89
(lp90
S'185.21.168.49'
p91
aS'185.21.169.49'
p92
aS'185.21.170.49'
p93
aS'185.21.171.49'
p94
asS'edu'
p95
(lp96
S'192.5.6.30'
p97
aS'192.26.92.30'
p98
aS'192.31.80.30'
p99
aS'192.35.51.30'
p100
aS'192.42.93.30'
p101
aS'192.41.162.30'
p102
asS'gn'
p103
(lp104
S'203.119.56.132'
p105
aS'147.28.0.39'
p106
aS'77.72.229.254'
p107
aS'196.216.168.49'
p108
asS'gm'
p109
(lp110
S'194.63.250.217'
p111
aS'196.49.1.87'
p112
aS'196.216.168.29'
p113
asS'gl'
p114
(lp115
S'162.88.52.8'
p116
aS'194.177.224.13'
p117
aS'162.88.53.8'
p118
aS'204.61.216.49'
p119
asS'gi'
p120
(lp121
S'199.254.59.1'
p122
aS'199.249.116.1'
p123
aS'199.254.60.1'
p124
aS'199.249.124.1'
p125
aS'199.254.61.1'
p126
aS'199.254.62.1'
p127
asS'gh'
p128
(lp129
S'200.160.0.5'
p130
aS'197.253.95.251'
p131
aS'197.253.127.251'
p132
aS'147.28.0.39'
p133
aS'77.72.229.254'
p134
asS'vet'
p135
(lp136
S'37.209.194.7'
p137
aS'37.209.192.7'
p138
aS'37.209.198.7'
p139
aS'37.209.196.7'
p140
asS'tz'
p141
(lp142
S'193.29.206.2'
p143
aS'204.61.216.15'
p144
aS'196.216.162.67'
p145
aS'147.28.0.39'
p146
aS'77.72.229.254'
p147
aS'196.216.168.20'
p148
aS'192.5.4.1'
p149
asS'immo'
p150
(lp151
S'37.209.194.7'
p152
aS'37.209.192.7'
p153
aS'37.209.198.7'
p154
aS'37.209.196.7'
p155
asS'paris'
p156
(lp157
S'194.0.9.1'
p158
aS'194.146.106.46'
p159
aS'194.0.36.1'
p160
aS'195.253.66.2'
p161
asS'tw'
p162
(lp163
S'203.73.24.25'
p164
aS'210.201.138.58'
p165
aS'203.66.87.201'
p166
aS'60.199.165.186'
p167
aS'211.20.231.11'
p168
aS'163.28.1.10'
p169
aS'220.229.225.195'
p170
aS'204.61.216.119'
p171
aS'194.0.11.105'
p172
aS'192.83.166.11'
p173
aS'203.119.43.53'
p174
asS'tt'
p175
(lp176
S'200.33.111.1'
p177
aS'204.61.216.63'
p178
aS'193.0.9.50'
p179
aS'192.5.4.1'
p180
asS'tr'
p181
(lp182
S'213.248.162.131'
p183
aS'213.14.246.2'
p184
aS'213.14.246.6'
p185
aS'31.210.155.2'
p186
aS'185.7.0.2'
p187
aS'185.7.0.3'
p188
aS'162.88.54.1'
p189
aS'162.88.55.1'
p190
asS'tn'
p191
(lp192
S'41.228.62.63'
p193
aS'41.228.63.62'
p194
aS'192.93.0.4'
p195
aS'204.61.216.94'
p196
aS'147.28.0.39'
p197
aS'196.216.168.25'
p198
asS'to'
p199
(lp200
S'216.74.32.104'
p201
aS'216.74.32.100'
p202
aS'162.243.211.202'
p203
aS'46.101.233.168'
p204
aS'188.166.187.0'
p205
asS'tl'
p206
(lp207
S'199.19.5.12'
p208
aS'199.19.6.12'
p209
aS'204.61.216.19'
p210
asS'bike'
p211
(lp212
S'37.209.194.7'
p213
aS'37.209.192.7'
p214
aS'37.209.198.7'
p215
aS'37.209.196.7'
p216
asS'tj'
p217
(lp218
S'193.0.9.117'
p219
aS'91.218.160.197'
p220
aS'193.111.11.4'
p221
aS'128.223.32.35'
p222
asS'tk'
p223
(lp224
S'194.0.38.1'
p225
aS'194.0.39.1'
p226
aS'194.0.40.1'
p227
aS'194.0.41.1'
p228
asS'supplies'
p229
(lp230
S'37.209.194.7'
p231
aS'37.209.192.7'
p232
aS'37.209.198.7'
p233
aS'37.209.196.7'
p234
asS'tf'
p235
(lp236
S'192.5.4.2'
p237
aS'194.0.9.1'
p238
aS'193.176.144.22'
p239
aS'194.146.106.46'
p240
aS'194.0.36.1'
p241
asS'ren'
p242
(lp243
S'1.8.240.1'
p244
aS'1.8.241.1'
p245
aS'1.8.242.1'
p246
aS'1.8.243.1'
p247
aS'119.167.248.154'
p248
aS'182.131.23.22'
p249
aS'42.62.2.16'
p250
asS'td'
p251
(lp252
S'192.134.0.49'
p253
aS'196.216.168.31'
p254
asS'tc'
p255
(lp256
S'31.169.81.225'
p257
aS'77.79.104.226'
p258
aS'77.79.104.225'
p259
aS'31.169.81.226'
p260
aS'95.173.188.6'
p261
aS'166.78.254.145'
p262
aS'119.9.93.69'
p263
aS'162.13.87.182'
p264
asS'baidu'
p265
(lp266
S'42.83.130.1'
p267
aS'42.83.131.1'
p268
aS'42.83.132.1'
p269
aS'42.83.133.1'
p270
aS'42.83.134.1'
p271
asS'town'
p272
(lp273
S'37.209.194.7'
p274
aS'37.209.192.7'
p275
aS'37.209.198.7'
p276
aS'37.209.196.7'
p277
asS'coop'
p278
(lp279
S'194.169.218.64'
p280
aS'185.24.64.64'
p281
aS'212.18.248.64'
p282
aS'212.18.249.64'
p283
asS'garden'
p284
(lp285
S'213.248.217.24'
p286
aS'103.49.81.24'
p287
aS'213.248.221.24'
p288
aS'43.230.49.24'
p289
aS'156.154.100.3'
p290
aS'156.154.101.3'
p291
aS'156.154.102.3'
p292
aS'156.154.103.3'
p293
asS'vegas'
p294
(lp295
S'65.22.68.17'
p296
aS'65.22.71.17'
p297
aS'65.22.69.17'
p298
aS'65.22.70.17'
p299
asS'cool'
p300
(lp301
S'37.209.194.7'
p302
aS'37.209.192.7'
p303
aS'37.209.198.7'
p304
aS'37.209.196.7'
p305
asS'tickets'
p306
(lp307
S'194.169.218.58'
p308
aS'185.24.64.58'
p309
aS'212.18.248.58'
p310
aS'212.18.249.58'
p311
asS'school'
p312
(lp313
S'37.209.194.7'
p314
aS'37.209.192.7'
p315
aS'37.209.198.7'
p316
aS'37.209.196.7'
p317
asS'prod'
p318
(lp319
S'216.239.32.105'
p320
aS'216.239.34.105'
p321
aS'216.239.36.105'
p322
aS'216.239.38.105'
p323
aS'216.239.60.105'
p324
asS'vu'
p325
(lp326
S'147.28.0.39'
p327
aS'77.72.229.254'
p328
aS'202.80.32.5'
p329
aS'202.80.32.7'
p330
aS'203.119.43.53'
p331
aS'202.80.32.9'
p332
aS'202.80.32.10'
p333
asS'saarland'
p334
(lp335
S'203.119.88.75'
p336
aS'72.0.48.75'
p337
aS'203.119.88.76'
p338
aS'72.0.48.76'
p339
asS'deals'
p340
(lp341
S'37.209.194.7'
p342
aS'37.209.192.7'
p343
aS'37.209.198.7'
p344
aS'37.209.196.7'
p345
asS'gd'
p346
(lp347
S'162.88.52.2'
p348
aS'162.88.53.2'
p349
aS'204.61.216.47'
p350
asS'guitars'
p351
(lp352
S'64.96.1.1'
p353
aS'64.96.245.53'
p354
aS'185.159.197.3'
p355
aS'185.159.198.3'
p356
asS'ml'
p357
(lp358
S'185.21.168.1'
p359
aS'185.21.169.1'
p360
aS'185.21.170.1'
p361
aS'185.21.171.1'
p362
asS'study'
p363
(lp364
S'37.209.192.10'
p365
aS'37.209.194.10'
p366
aS'37.209.196.10'
p367
aS'37.209.198.10'
p368
asS'trv'
p369
(lp370
S'65.22.200.25'
p371
aS'65.22.203.25'
p372
aS'65.22.201.25'
p373
aS'65.22.202.25'
p374
asS'zm'
p375
(lp376
S'196.46.192.26'
p377
aS'196.46.192.21'
p378
aS'204.61.216.73'
p379
aS'196.216.168.44'
p380
asS'work'
p381
(lp382
S'213.248.217.35'
p383
aS'103.49.81.35'
p384
aS'213.248.221.35'
p385
aS'43.230.49.35'
p386
aS'156.154.100.3'
p387
aS'156.154.101.3'
p388
aS'156.154.102.3'
p389
aS'156.154.103.3'
p390
asS'tel'
p391
(lp392
S'156.154.169.10'
p393
aS'156.154.170.10'
p394
aS'156.154.171.10'
p395
aS'156.154.172.10'
p396
aS'156.154.173.10'
p397
aS'156.154.174.10'
p398
aS'194.146.106.38'
p399
aS'192.36.144.116'
p400
asS'porn'
p401
(lp402
S'199.115.152.1'
p403
aS'199.115.156.1'
p404
aS'199.115.153.1'
p405
aS'199.115.157.1'
p406
aS'199.115.154.1'
p407
aS'199.115.155.1'
p408
asS'direct'
p409
(lp410
S'37.209.194.7'
p411
aS'37.209.192.7'
p412
aS'37.209.198.7'
p413
aS'37.209.196.7'
p414
asS'cfa'
p415
(lp416
S'192.42.173.30'
p417
aS'192.42.174.30'
p418
aS'192.42.175.30'
p419
aS'192.42.176.30'
p420
asS'hitachi'
p421
(lp422
S'37.209.192.4'
p423
aS'37.209.194.4'
p424
aS'37.209.196.4'
p425
aS'37.209.198.4'
p426
asS'gmbh'
p427
(lp428
S'37.209.194.7'
p429
aS'37.209.192.7'
p430
aS'37.209.198.7'
p431
aS'37.209.196.7'
p432
asS'design'
p433
(lp434
S'194.169.218.59'
p435
aS'185.24.64.59'
p436
aS'212.18.248.59'
p437
aS'212.18.249.59'
p438
asS'mk'
p439
(lp440
S'193.29.206.2'
p441
aS'194.249.4.44'
p442
aS'194.149.137.168'
p443
aS'78.104.145.4'
p444
asS'video'
p445
(lp446
S'37.209.194.7'
p447
aS'37.209.192.7'
p448
aS'37.209.198.7'
p449
aS'37.209.196.7'
p450
asS'download'
p451
(lp452
S'156.154.144.50'
p453
aS'156.154.145.50'
p454
aS'156.154.159.50'
p455
aS'156.154.156.50'
p456
aS'156.154.157.50'
p457
aS'156.154.158.50'
p458
asS'zw'
p459
(lp460
S'194.133.122.47'
p461
aS'5.11.11.1'
p462
aS'194.133.122.42'
p463
aS'5.11.11.10'
p464
asS'click'
p465
(lp466
S'64.96.1.1'
p467
aS'64.96.245.53'
p468
aS'185.159.197.3'
p469
aS'185.159.198.3'
p470
asS'ooo'
p471
(lp472
S'192.42.173.30'
p473
aS'192.42.174.30'
p474
aS'192.42.175.30'
p475
aS'192.42.176.30'
p476
asS'blue'
p477
(lp478
S'65.22.28.9'
p479
aS'65.22.31.9'
p480
aS'65.22.29.9'
p481
aS'65.22.30.9'
p482
asS'reviews'
p483
(lp484
S'37.209.194.7'
p485
aS'37.209.192.7'
p486
aS'37.209.198.7'
p487
aS'37.209.196.7'
p488
asS'abb'
p489
(lp490
S'192.42.173.30'
p491
aS'192.42.174.30'
p492
aS'192.42.175.30'
p493
aS'192.42.176.30'
p494
asS'bb'
p495
(lp496
S'200.50.92.195'
p497
aS'64.119.204.139'
p498
asS'xn--wgbl6a'
p499
(lp500
S'178.23.16.104'
p501
aS'178.23.17.104'
p502
aS'212.77.192.10'
p503
aS'212.77.192.13'
p504
aS'37.209.192.6'
p505
aS'37.209.194.6'
p506
aS'204.61.216.62'
p507
asS'cooking'
p508
(lp509
S'213.248.217.19'
p510
aS'103.49.81.19'
p511
aS'213.248.221.19'
p512
aS'43.230.49.19'
p513
aS'156.154.100.3'
p514
aS'156.154.101.3'
p515
aS'156.154.102.3'
p516
aS'156.154.103.3'
p517
asS'xn--mgbab2bd'
p518
(lp519
S'195.253.64.11'
p520
aS'195.253.64.12'
p521
aS'195.253.65.11'
p522
aS'195.253.65.12'
p523
asS'asia'
p524
(lp525
S'199.19.55.1'
p526
aS'199.249.114.1'
p527
aS'199.254.28.1'
p528
aS'199.249.122.1'
p529
aS'199.254.29.1'
p530
aS'199.254.30.1'
p531
asS'energy'
p532
(lp533
S'37.209.194.7'
p534
aS'37.209.192.7'
p535
aS'37.209.198.7'
p536
aS'37.209.196.7'
p537
asS'capital'
p538
(lp539
S'37.209.194.7'
p540
aS'37.209.192.7'
p541
aS'37.209.198.7'
p542
aS'37.209.196.7'
p543
asS'international'
p544
(lp545
S'37.209.194.7'
p546
aS'37.209.192.7'
p547
aS'37.209.198.7'
p548
aS'37.209.196.7'
p549
asS'net'
p550
(lp551
S'192.5.6.30'
p552
aS'192.33.14.30'
p553
aS'192.26.92.30'
p554
aS'192.31.80.30'
p555
aS'192.12.94.30'
p556
aS'192.35.51.30'
p557
aS'192.42.93.30'
p558
aS'192.54.112.30'
p559
aS'192.43.172.30'
p560
aS'192.48.79.30'
p561
aS'192.52.178.30'
p562
aS'192.41.162.30'
p563
aS'192.55.83.30'
p564
asS'racing'
p565
(lp566
S'156.154.169.33'
p567
aS'156.154.170.33'
p568
aS'156.154.171.33'
p569
aS'156.154.172.33'
p570
aS'156.154.173.33'
p571
aS'156.154.174.33'
p572
asS'bn'
p573
(lp574
S'194.0.1.33'
p575
aS'202.93.214.163'
p576
aS'203.119.43.53'
p577
aS'204.61.216.87'
p578
asS'xn--3e0b707e'
p579
(lp580
S'61.74.75.1'
p581
aS'203.248.246.220'
p582
aS'203.83.159.1'
p583
aS'202.30.124.100'
p584
aS'218.38.181.90'
p585
aS'202.31.190.1'
p586
asS'med'
p587
(lp588
S'192.42.173.30'
p589
aS'192.42.174.30'
p590
aS'192.42.175.30'
p591
aS'192.42.176.30'
p592
asS'ms'
p593
(lp594
S'199.19.5.23'
p595
aS'199.19.6.23'
p596
aS'204.61.216.33'
p597
aS'128.223.32.35'
p598
aS'199.7.90.2'
p599
asS'degree'
p600
(lp601
S'37.209.194.7'
p602
aS'37.209.192.7'
p603
aS'37.209.198.7'
p604
aS'37.209.196.7'
p605
asS'exchange'
p606
(lp607
S'37.209.194.7'
p608
aS'37.209.192.7'
p609
aS'37.209.198.7'
p610
aS'37.209.196.7'
p611
asS'marketing'
p612
(lp613
S'37.209.194.7'
p614
aS'37.209.192.7'
p615
aS'37.209.198.7'
p616
aS'37.209.196.7'
p617
asS'men'
p618
(lp619
S'37.209.192.10'
p620
aS'37.209.194.10'
p621
aS'37.209.196.10'
p622
aS'37.209.198.10'
p623
asS'okinawa'
p624
(lp625
S'37.209.192.4'
p626
aS'37.209.194.4'
p627
aS'37.209.196.4'
p628
aS'37.209.198.4'
p629
asS'lgbt'
p630
(lp631
S'65.22.32.1'
p632
aS'65.22.35.1'
p633
aS'65.22.33.1'
p634
aS'65.22.34.1'
p635
asS'studio'
p636
(lp637
S'37.209.194.7'
p638
aS'37.209.192.7'
p639
aS'37.209.198.7'
p640
aS'37.209.196.7'
p641
asS'xn--80adxhks'
p642
(lp643
S'31.177.70.1'
p644
aS'195.253.64.6'
p645
aS'195.253.65.6'
p646
aS'89.111.135.1'
p647
asS'tv'
p648
(lp649
S'192.42.173.30'
p650
aS'192.42.174.30'
p651
aS'192.42.175.30'
p652
aS'192.42.176.30'
p653
asS'sexy'
p654
(lp655
S'64.96.1.1'
p656
aS'64.96.245.53'
p657
aS'185.159.197.3'
p658
aS'185.159.198.3'
p659
asS'box'
p660
(lp661
S'37.209.192.10'
p662
aS'37.209.194.10'
p663
aS'37.209.196.10'
p664
aS'37.209.198.10'
p665
asS'bible'
p666
(lp667
S'156.154.169.100'
p668
aS'156.154.170.100'
p669
aS'156.154.171.100'
p670
aS'156.154.172.100'
p671
aS'156.154.173.100'
p672
aS'156.154.174.100'
p673
asS'zone'
p674
(lp675
S'37.209.194.7'
p676
aS'37.209.192.7'
p677
aS'37.209.198.7'
p678
aS'37.209.196.7'
p679
asS'institute'
p680
(lp681
S'37.209.194.7'
p682
aS'37.209.192.7'
p683
aS'37.209.198.7'
p684
aS'37.209.196.7'
p685
asS'gent'
p686
(lp687
S'194.169.218.89'
p688
aS'185.24.64.89'
p689
aS'212.18.248.89'
p690
aS'212.18.249.89'
p691
asS'casino'
p692
(lp693
S'37.209.194.7'
p694
aS'37.209.192.7'
p695
aS'37.209.198.7'
p696
aS'37.209.196.7'
p697
asS'pics'
p698
(lp699
S'64.96.1.1'
p700
aS'64.96.245.53'
p701
aS'185.159.197.3'
p702
aS'185.159.198.3'
p703
asS'credit'
p704
(lp705
S'37.209.194.7'
p706
aS'37.209.192.7'
p707
aS'37.209.198.7'
p708
aS'37.209.196.7'
p709
asS'social'
p710
(lp711
S'37.209.194.7'
p712
aS'37.209.192.7'
p713
aS'37.209.198.7'
p714
aS'37.209.196.7'
p715
asS'domains'
p716
(lp717
S'37.209.194.7'
p718
aS'37.209.192.7'
p719
aS'37.209.198.7'
p720
aS'37.209.196.7'
p721
asS'link'
p722
(lp723
S'64.96.1.1'
p724
aS'64.96.245.53'
p725
aS'185.159.197.3'
p726
aS'185.159.198.3'
p727
asS'bnpparibas'
p728
(lp729
S'65.22.64.9'
p730
aS'65.22.67.9'
p731
aS'65.22.65.9'
p732
aS'65.22.66.9'
p733
asS'love'
p734
(lp735
S'194.169.218.62'
p736
aS'185.24.64.62'
p737
aS'212.18.248.62'
p738
aS'212.18.249.62'
p739
asS'win'
p740
(lp741
S'156.154.144.182'
p742
aS'156.154.145.182'
p743
aS'156.154.159.182'
p744
aS'156.154.156.182'
p745
aS'156.154.157.182'
p746
aS'156.154.158.182'
p747
asS'app'
p748
(lp749
S'216.239.32.105'
p750
aS'216.239.34.105'
p751
aS'216.239.36.105'
p752
aS'216.239.38.105'
p753
aS'216.239.60.105'
p754
asS'africa'
p755
(lp756
S'206.223.136.200'
p757
aS'66.135.46.112'
p758
aS'194.146.106.74'
p759
asS'vip'
p760
(lp761
S'213.248.217.32'
p762
aS'103.49.81.32'
p763
aS'213.248.221.32'
p764
aS'43.230.49.32'
p765
aS'156.154.100.3'
p766
aS'156.154.101.3'
p767
aS'156.154.102.3'
p768
aS'156.154.103.3'
p769
asS'limo'
p770
(lp771
S'37.209.194.7'
p772
aS'37.209.192.7'
p773
aS'37.209.198.7'
p774
aS'37.209.196.7'
p775
asS'toys'
p776
(lp777
S'37.209.194.7'
p778
aS'37.209.192.7'
p779
aS'37.209.198.7'
p780
aS'37.209.196.7'
p781
asS'total'
p782
(lp783
S'194.0.9.1'
p784
aS'194.146.106.46'
p785
aS'194.0.36.1'
p786
asS'tools'
p787
(lp788
S'37.209.194.7'
p789
aS'37.209.192.7'
p790
aS'37.209.198.7'
p791
aS'37.209.196.7'
p792
asS'cloud'
p793
(lp794
S'37.209.192.10'
p795
aS'37.209.194.10'
p796
aS'37.209.196.10'
p797
aS'37.209.198.10'
p798
asS've'
p799
(lp800
S'150.188.228.4'
p801
aS'150.188.228.5'
p802
aS'190.9.129.56'
p803
aS'190.202.128.43'
p804
aS'200.1.123.14'
p805
aS'192.5.4.1'
p806
aS'150.185.130.16'
p807
asS'saxo'
p808
(lp809
S'37.209.192.9'
p810
aS'37.209.194.9'
p811
aS'37.209.196.9'
p812
aS'37.209.198.9'
p813
asS'stream'
p814
(lp815
S'156.154.169.50'
p816
aS'156.154.170.50'
p817
aS'156.154.171.50'
p818
aS'156.154.172.50'
p819
aS'156.154.173.50'
p820
aS'156.154.174.50'
p821
asS'army'
p822
(lp823
S'37.209.194.7'
p824
aS'37.209.192.7'
p825
aS'37.209.198.7'
p826
aS'37.209.196.7'
p827
asS'xn--h2brj9c'
p828
(lp829
S'199.254.59.1'
p830
aS'115.249.164.142'
p831
aS'199.249.117.1'
p832
aS'199.254.60.1'
p833
aS'180.179.215.70'
p834
aS'199.249.125.1'
p835
aS'199.254.61.1'
p836
aS'199.254.62.1'
p837
asS'nagoya'
p838
(lp839
S'37.209.192.4'
p840
aS'37.209.194.4'
p841
aS'37.209.196.4'
p842
aS'37.209.198.4'
p843
asS'properties'
p844
(lp845
S'37.209.194.7'
p846
aS'37.209.192.7'
p847
aS'37.209.198.7'
p848
aS'37.209.196.7'
p849
asS'live'
p850
(lp851
S'37.209.194.7'
p852
aS'37.209.192.7'
p853
aS'37.209.198.7'
p854
aS'37.209.196.7'
p855
asS'camera'
p856
(lp857
S'37.209.194.7'
p858
aS'37.209.192.7'
p859
aS'37.209.198.7'
p860
aS'37.209.196.7'
p861
asS'vi'
p862
(lp863
S'192.5.4.1'
p864
aS'68.178.129.149'
p865
aS'198.6.1.202'
p866
aS'198.6.1.114'
p867
asS'markets'
p868
(lp869
S'192.42.173.30'
p870
aS'192.42.174.30'
p871
aS'192.42.175.30'
p872
aS'192.42.176.30'
p873
asS'today'
p874
(lp875
S'37.209.194.7'
p876
aS'37.209.192.7'
p877
aS'37.209.198.7'
p878
aS'37.209.196.7'
p879
asS'bradesco'
p880
(lp881
S'213.248.217.37'
p882
aS'103.49.81.37'
p883
aS'213.248.221.37'
p884
aS'43.230.49.37'
p885
aS'156.154.100.3'
p886
aS'156.154.101.3'
p887
aS'156.154.102.3'
p888
aS'156.154.103.3'
p889
asS'club'
p890
(lp891
S'156.154.144.215'
p892
aS'156.154.145.215'
p893
aS'156.154.159.215'
p894
aS'156.154.156.215'
p895
aS'156.154.157.215'
p896
aS'156.154.158.215'
p897
asS'company'
p898
(lp899
S'37.209.194.7'
p900
aS'37.209.192.7'
p901
aS'37.209.198.7'
p902
aS'37.209.196.7'
p903
asS'yahoo'
p904
(lp905
S'156.154.144.184'
p906
aS'156.154.145.184'
p907
aS'156.154.159.184'
p908
aS'156.154.156.184'
p909
aS'156.154.157.184'
p910
aS'156.154.158.184'
p911
asS'site'
p912
(lp913
S'194.169.218.61'
p914
aS'185.24.64.61'
p915
aS'185.38.99.5'
p916
aS'108.59.161.5'
p917
asS'glass'
p918
(lp919
S'37.209.194.7'
p920
aS'37.209.192.7'
p921
aS'37.209.198.7'
p922
aS'37.209.196.7'
p923
asS'berlin'
p924
(lp925
S'194.0.25.16'
p926
aS'194.0.26.5'
p927
aS'194.0.24.5'
p928
asS'adult'
p929
(lp930
S'199.115.152.1'
p931
aS'199.115.156.1'
p932
aS'199.115.153.1'
p933
aS'199.115.157.1'
p934
aS'199.115.154.1'
p935
aS'199.115.155.1'
p936
asS'tg'
p937
(lp938
S'41.207.188.36'
p939
aS'198.73.186.1'
p940
aS'80.248.68.12'
p941
aS'108.61.25.122'
p942
aS'87.98.180.44'
p943
aS'103.25.58.26'
p944
aS'188.165.33.42'
p945
aS'80.248.64.20'
p946
asS'me'
p947
(lp948
S'199.253.59.1'
p949
aS'199.249.119.1'
p950
aS'199.253.60.1'
p951
aS'199.249.127.1'
p952
aS'199.253.61.1'
p953
asS'md'
p954
(lp955
S'217.26.144.15'
p956
aS'86.106.212.21'
p957
aS'144.217.93.2'
p958
aS'92.222.76.179'
p959
aS'192.162.16.19'
p960
aS'204.152.184.64'
p961
aS'217.26.144.5'
p962
asS'mg'
p963
(lp964
S'199.19.5.24'
p965
aS'199.19.6.24'
p966
aS'196.192.32.2'
p967
aS'196.192.42.153'
p968
aS'87.98.132.231'
p969
aS'91.203.32.147'
p970
asS'ma'
p971
(lp972
S'193.51.208.13'
p973
aS'81.192.171.83'
p974
aS'192.93.0.4'
p975
aS'81.192.171.84'
p976
aS'81.192.171.139'
p977
aS'81.192.171.140'
p978
aS'192.5.4.1'
p979
asS'mc'
p980
(lp981
S'193.0.9.92'
p982
aS'88.209.82.210'
p983
aS'149.5.230.10'
p984
asS'tokyo'
p985
(lp986
S'37.209.192.4'
p987
aS'37.209.194.4'
p988
aS'37.209.196.4'
p989
aS'37.209.198.4'
p990
asS'mm'
p991
(lp992
S'193.0.9.96'
p993
aS'203.81.64.20'
p994
aS'203.81.81.85'
p995
aS'203.81.92.10'
p996
asS'car'
p997
(lp998
S'64.96.1.1'
p999
aS'64.96.245.53'
p1000
aS'185.159.197.3'
p1001
aS'185.159.198.3'
p1002
asS'mo'
p1003
(lp1004
S'202.175.87.47'
p1005
aS'202.175.87.48'
p1006
aS'202.175.87.49'
p1007
aS'202.175.51.115'
p1008
aS'202.175.51.116'
p1009
aS'137.189.6.21'
p1010
aS'194.0.1.17'
p1011
asS'mn'
p1012
(lp1013
S'199.254.59.1'
p1014
aS'199.249.116.1'
p1015
aS'199.254.60.1'
p1016
aS'199.249.124.1'
p1017
aS'199.254.61.1'
p1018
aS'199.254.62.1'
p1019
aS'202.131.0.10'
p1020
aS'202.72.241.5'
p1021
aS'202.131.224.80'
p1022
aS'218.100.84.26'
p1023
asS'dev'
p1024
(lp1025
S'216.239.32.105'
p1026
aS'216.239.34.105'
p1027
aS'216.239.36.105'
p1028
aS'216.239.38.105'
p1029
aS'216.239.60.105'
p1030
asS'cat'
p1031
(lp1032
S'84.88.0.162'
p1033
aS'204.61.216.20'
p1034
aS'194.69.254.1'
p1035
aS'194.0.11.110'
p1036
aS'195.253.64.4'
p1037
aS'192.5.4.1'
p1038
aS'130.59.31.29'
p1039
asS'mu'
p1040
(lp1041
S'77.72.229.254'
p1042
aS'204.61.216.10'
p1043
aS'193.0.9.98'
p1044
aS'195.253.64.5'
p1045
asS'mt'
p1046
(lp1047
S'193.188.47.252'
p1048
aS'193.188.34.241'
p1049
aS'192.93.0.4'
p1050
aS'192.5.4.1'
p1051
aS'204.61.216.45'
p1052
asS'mw'
p1053
(lp1054
S'193.0.9.99'
p1055
aS'147.28.0.39'
p1056
aS'202.12.28.140'
p1057
aS'196.45.190.9'
p1058
aS'41.221.99.135'
p1059
asS'mv'
p1060
(lp1061
S'202.1.192.196'
p1062
aS'202.1.201.201'
p1063
aS'204.61.216.24'
p1064
asS'mq'
p1065
(lp1066
S'188.165.38.14'
p1067
aS'213.188.172.1'
p1068
aS'213.16.20.3'
p1069
asS'mp'
p1070
(lp1071
S'202.128.29.2'
p1072
aS'202.128.29.135'
p1073
aS'75.101.129.89'
p1074
aS'75.101.133.101'
p1075
asS'cam'
p1076
(lp1077
S'203.119.88.75'
p1078
aS'72.0.48.75'
p1079
aS'203.119.88.76'
p1080
aS'72.0.48.76'
p1081
asS'mr'
p1082
(lp1083
S'41.188.65.193'
p1084
aS'82.151.64.2'
p1085
aS'192.134.0.49'
p1086
aS'91.203.32.147'
p1087
asS'cab'
p1088
(lp1089
S'37.209.194.7'
p1090
aS'37.209.192.7'
p1091
aS'37.209.198.7'
p1092
aS'37.209.196.7'
p1093
asS'my'
p1094
(lp1095
S'49.236.194.202'
p1096
aS'202.171.47.204'
p1097
aS'137.189.6.21'
p1098
aS'194.0.1.30'
p1099
aS'192.134.0.49'
p1100
asS'mx'
p1101
(lp1102
S'192.100.224.1'
p1103
aS'189.201.244.1'
p1104
aS'207.248.68.1'
p1105
aS'200.94.176.1'
p1106
aS'200.23.1.1'
p1107
aS'201.131.252.1'
p1108
asS'mz'
p1109
(lp1110
S'204.61.216.14'
p1111
aS'196.3.96.66'
p1112
aS'196.216.168.40'
p1113
aS'196.3.96.67'
p1114
aS'196.3.96.69'
p1115
aS'128.223.32.35'
p1116
asS'wang'
p1117
(lp1118
S'1.8.240.1'
p1119
aS'1.8.241.1'
p1120
aS'1.8.242.1'
p1121
aS'1.8.243.1'
p1122
aS'119.167.248.154'
p1123
aS'182.131.23.22'
p1124
aS'42.62.2.16'
p1125
asS'estate'
p1126
(lp1127
S'37.209.194.7'
p1128
aS'37.209.192.7'
p1129
aS'37.209.198.7'
p1130
aS'37.209.196.7'
p1131
asS'tax'
p1132
(lp1133
S'37.209.194.7'
p1134
aS'37.209.192.7'
p1135
aS'37.209.198.7'
p1136
aS'37.209.196.7'
p1137
asS'clothing'
p1138
(lp1139
S'37.209.194.7'
p1140
aS'37.209.192.7'
p1141
aS'37.209.198.7'
p1142
aS'37.209.196.7'
p1143
asS'afl'
p1144
(lp1145
S'37.209.192.9'
p1146
aS'37.209.194.9'
p1147
aS'37.209.196.9'
p1148
aS'37.209.198.9'
p1149
asS'guru'
p1150
(lp1151
S'37.209.194.7'
p1152
aS'37.209.192.7'
p1153
aS'37.209.198.7'
p1154
aS'37.209.196.7'
p1155
asS'technology'
p1156
(lp1157
S'37.209.194.7'
p1158
aS'37.209.192.7'
p1159
aS'37.209.198.7'
p1160
aS'37.209.196.7'
p1161
asS'travel'
p1162
(lp1163
S'156.154.100.1'
p1164
aS'156.154.101.1'
p1165
aS'156.154.102.1'
p1166
aS'156.154.103.1'
p1167
aS'156.154.104.1'
p1168
aS'156.154.105.1'
p1169
asS'xn--80aswg'
p1170
(lp1171
S'195.253.64.11'
p1172
aS'195.253.64.12'
p1173
aS'195.253.65.11'
p1174
aS'195.253.65.12'
p1175
asS'how'
p1176
(lp1177
S'216.239.32.105'
p1178
aS'216.239.34.105'
p1179
aS'216.239.36.105'
p1180
aS'216.239.38.105'
p1181
aS'216.239.60.105'
p1182
asS'hot'
p1183
(lp1184
S'156.154.144.251'
p1185
aS'156.154.145.251'
p1186
aS'156.154.159.251'
p1187
aS'156.154.156.251'
p1188
aS'156.154.157.251'
p1189
aS'156.154.158.251'
p1190
asS'shoes'
p1191
(lp1192
S'37.209.194.7'
p1193
aS'37.209.192.7'
p1194
aS'37.209.198.7'
p1195
aS'37.209.196.7'
p1196
asS'nyc'
p1197
(lp1198
S'156.154.144.125'
p1199
aS'156.154.145.125'
p1200
aS'156.154.159.125'
p1201
aS'156.154.156.125'
p1202
aS'156.154.157.125'
p1203
aS'156.154.158.125'
p1204
asS'pizza'
p1205
(lp1206
S'37.209.194.7'
p1207
aS'37.209.192.7'
p1208
aS'37.209.198.7'
p1209
aS'37.209.196.7'
p1210
asS'lidl'
p1211
(lp1212
S'194.169.218.91'
p1213
aS'185.24.64.91'
p1214
aS'212.18.248.91'
p1215
aS'212.18.249.91'
p1216
asS'fr'
p1217
(lp1218
S'192.5.4.2'
p1219
aS'194.0.9.1'
p1220
aS'193.176.144.22'
p1221
aS'194.146.106.46'
p1222
aS'194.0.36.1'
p1223
asS'express'
p1224
(lp1225
S'37.209.194.7'
p1226
aS'37.209.192.7'
p1227
aS'37.209.198.7'
p1228
aS'37.209.196.7'
p1229
asS'farm'
p1230
(lp1231
S'37.209.194.7'
p1232
aS'37.209.192.7'
p1233
aS'37.209.198.7'
p1234
aS'37.209.196.7'
p1235
asS'tienda'
p1236
(lp1237
S'37.209.194.7'
p1238
aS'37.209.192.7'
p1239
aS'37.209.198.7'
p1240
aS'37.209.196.7'
p1241
asS'physio'
p1242
(lp1243
S'37.209.192.10'
p1244
aS'37.209.194.10'
p1245
aS'37.209.196.10'
p1246
aS'37.209.198.10'
p1247
asS'lighting'
p1248
(lp1249
S'37.209.194.7'
p1250
aS'37.209.192.7'
p1251
aS'37.209.198.7'
p1252
aS'37.209.196.7'
p1253
asS'date'
p1254
(lp1255
S'156.154.144.46'
p1256
aS'156.154.145.46'
p1257
aS'156.154.159.46'
p1258
aS'156.154.156.46'
p1259
aS'156.154.157.46'
p1260
aS'156.154.158.46'
p1261
asS'fi'
p1262
(lp1263
S'193.166.4.1'
p1264
aS'194.146.106.26'
p1265
aS'194.0.11.104'
p1266
aS'77.72.229.253'
p1267
aS'194.0.1.14'
p1268
aS'87.239.127.198'
p1269
aS'204.61.216.98'
p1270
aS'87.239.120.11'
p1271
aS'162.88.44.1'
p1272
asS'fj'
p1273
(lp1274
S'147.28.0.39'
p1275
aS'144.120.8.10'
p1276
aS'144.120.8.1'
p1277
aS'128.32.136.3'
p1278
aS'128.32.136.14'
p1279
aS'198.6.1.65'
p1280
asS'fk'
p1281
(lp1282
S'195.248.193.250'
p1283
aS'141.1.27.248'
p1284
aS'195.27.1.2'
p1285
aS'141.1.27.251'
p1286
asS'fm'
p1287
(lp1288
S'204.74.112.1'
p1289
aS'204.74.113.1'
p1290
aS'199.7.66.1'
p1291
aS'199.7.67.1'
p1292
aS'192.100.59.11'
p1293
aS'198.133.199.11'
p1294
asS'engineering'
p1295
(lp1296
S'37.209.194.7'
p1297
aS'37.209.192.7'
p1298
aS'37.209.198.7'
p1299
aS'37.209.196.7'
p1300
asS'fo'
p1301
(lp1302
S'194.169.218.27'
p1303
aS'185.24.64.27'
p1304
aS'212.18.248.27'
p1305
aS'212.18.249.27'
p1306
asS'sz'
p1307
(lp1308
S'193.0.9.114'
p1309
aS'41.77.232.4'
p1310
aS'147.28.0.39'
p1311
asS'sy'
p1312
(lp1313
S'193.0.9.113'
p1314
asS'sx'
p1315
(lp1316
S'185.159.197.10'
p1317
aS'185.159.198.10'
p1318
asS'sr'
p1319
(lp1320
S'200.1.159.148'
p1321
aS'200.2.162.30'
p1322
asS'sv'
p1323
(lp1324
S'137.39.1.3'
p1325
aS'200.160.0.5'
p1326
aS'193.0.9.112'
p1327
aS'168.243.254.1'
p1328
aS'200.107.82.100'
p1329
aS'131.100.140.162'
p1330
aS'198.6.1.82'
p1331
asS'dvag'
p1332
(lp1333
S'203.119.88.75'
p1334
aS'72.0.48.75'
p1335
aS'203.119.88.76'
p1336
aS'72.0.48.76'
p1337
asS'st'
p1338
(lp1339
S'195.178.160.2'
p1340
aS'119.252.188.97'
p1341
aS'79.136.119.20'
p1342
aS'198.105.223.67'
p1343
asS'sk'
p1344
(lp1345
S'194.0.45.1'
p1346
aS'84.245.96.1'
p1347
aS'195.12.159.1'
p1348
aS'192.5.4.1'
p1349
asS'si'
p1350
(lp1351
S'194.249.4.44'
p1352
aS'192.93.0.4'
p1353
aS'194.146.106.62'
p1354
aS'194.0.1.20'
p1355
aS'204.61.216.54'
p1356
aS'194.0.25.22'
p1357
aS'108.59.164.1'
p1358
asS'sh'
p1359
(lp1360
S'65.22.160.9'
p1361
aS'65.22.163.9'
p1362
aS'65.22.161.9'
p1363
aS'65.22.162.9'
p1364
aS'194.0.1.1'
p1365
aS'74.116.178.1'
p1366
asS'green'
p1367
(lp1368
S'65.22.32.9'
p1369
aS'65.22.35.9'
p1370
aS'65.22.33.9'
p1371
aS'65.22.34.9'
p1372
asS'sn'
p1373
(lp1374
S'196.1.95.1'
p1375
aS'193.0.9.111'
p1376
aS'213.154.64.11'
p1377
aS'192.134.0.49'
p1378
aS'91.203.32.147'
p1379
asS'sm'
p1380
(lp1381
S'193.0.9.110'
p1382
aS'194.183.64.10'
p1383
aS'194.183.64.11'
p1384
aS'194.0.27.12'
p1385
asS'healthcare'
p1386
(lp1387
S'37.209.194.7'
p1388
aS'37.209.192.7'
p1389
aS'37.209.198.7'
p1390
aS'37.209.196.7'
p1391
asS'plumbing'
p1392
(lp1393
S'37.209.194.7'
p1394
aS'37.209.192.7'
p1395
aS'37.209.198.7'
p1396
aS'37.209.196.7'
p1397
asS'sb'
p1398
(lp1399
S'199.19.5.11'
p1400
aS'199.19.6.11'
p1401
aS'204.61.216.31'
p1402
aS'192.5.4.1'
p1403
asS'rentals'
p1404
(lp1405
S'37.209.194.7'
p1406
aS'37.209.192.7'
p1407
aS'37.209.198.7'
p1408
aS'37.209.196.7'
p1409
asS'sg'
p1410
(lp1411
S'137.189.6.21'
p1412
aS'202.12.28.140'
p1413
aS'194.0.11.106'
p1414
aS'204.61.216.57'
p1415
asS'se'
p1416
(lp1417
S'192.36.144.107'
p1418
aS'192.36.133.107'
p1419
aS'192.36.135.107'
p1420
aS'192.71.53.53'
p1421
aS'130.239.5.114'
p1422
aS'194.146.106.22'
p1423
aS'199.254.63.1'
p1424
aS'213.108.25.4'
p1425
asS'sd'
p1426
(lp1427
S'193.0.9.109'
p1428
aS'66.135.46.112'
p1429
aS'213.42.0.226'
p1430
aS'195.229.0.186'
p1431
aS'196.29.166.134'
p1432
aS'196.29.180.14'
p1433
aS'196.29.164.14'
p1434
aS'196.216.168.26'
p1435
asS'salon'
p1436
(lp1437
S'37.209.194.7'
p1438
aS'37.209.192.7'
p1439
aS'37.209.198.7'
p1440
aS'37.209.196.7'
p1441
asS'help'
p1442
(lp1443
S'64.96.1.1'
p1444
aS'64.96.245.53'
p1445
aS'185.159.197.3'
p1446
aS'185.159.198.3'
p1447
asS'office'
p1448
(lp1449
S'156.154.144.126'
p1450
aS'156.154.145.126'
p1451
aS'156.154.159.126'
p1452
aS'156.154.156.126'
p1453
aS'156.154.157.126'
p1454
aS'156.154.158.126'
p1455
asS'kyoto'
p1456
(lp1457
S'37.209.192.4'
p1458
aS'37.209.194.4'
p1459
aS'37.209.196.4'
p1460
aS'37.209.198.4'
p1461
asS'wedding'
p1462
(lp1463
S'213.248.217.34'
p1464
aS'103.49.81.34'
p1465
aS'213.248.221.34'
p1466
aS'43.230.49.34'
p1467
aS'156.154.100.3'
p1468
aS'156.154.101.3'
p1469
aS'156.154.102.3'
p1470
aS'156.154.103.3'
p1471
asS'trade'
p1472
(lp1473
S'156.154.144.165'
p1474
aS'156.154.145.165'
p1475
aS'156.154.159.165'
p1476
aS'156.154.156.165'
p1477
aS'156.154.157.165'
p1478
aS'156.154.158.165'
p1479
asS'barclays'
p1480
(lp1481
S'37.209.192.9'
p1482
aS'37.209.194.9'
p1483
aS'37.209.196.9'
p1484
aS'37.209.198.9'
p1485
asS'london'
p1486
(lp1487
S'213.248.217.28'
p1488
aS'103.49.81.28'
p1489
aS'213.248.221.28'
p1490
aS'43.230.49.28'
p1491
aS'156.154.100.3'
p1492
aS'156.154.101.3'
p1493
aS'156.154.102.3'
p1494
aS'156.154.103.3'
p1495
asS'yandex'
p1496
(lp1497
S'156.154.144.186'
p1498
aS'156.154.145.186'
p1499
aS'156.154.159.186'
p1500
aS'156.154.156.186'
p1501
aS'156.154.157.186'
p1502
aS'156.154.158.186'
p1503
asS'style'
p1504
(lp1505
S'37.209.194.7'
p1506
aS'37.209.192.7'
p1507
aS'37.209.198.7'
p1508
aS'37.209.196.7'
p1509
asS'group'
p1510
(lp1511
S'37.209.194.7'
p1512
aS'37.209.192.7'
p1513
aS'37.209.198.7'
p1514
aS'37.209.196.7'
p1515
asS'lc'
p1516
(lp1517
S'199.254.59.1'
p1518
aS'199.249.116.1'
p1519
aS'199.254.60.1'
p1520
aS'199.249.124.1'
p1521
aS'199.254.61.1'
p1522
aS'199.254.62.1'
p1523
asS'fit'
p1524
(lp1525
S'213.248.217.23'
p1526
aS'103.49.81.23'
p1527
aS'213.248.221.23'
p1528
aS'43.230.49.23'
p1529
aS'156.154.100.3'
p1530
aS'156.154.101.3'
p1531
aS'156.154.102.3'
p1532
aS'156.154.103.3'
p1533
asS'la'
p1534
(lp1535
S'185.24.64.15'
p1536
aS'194.169.218.14'
p1537
aS'185.24.64.14'
p1538
aS'194.169.218.15'
p1539
asS'sale'
p1540
(lp1541
S'37.209.194.7'
p1542
aS'37.209.192.7'
p1543
aS'37.209.198.7'
p1544
aS'37.209.196.7'
p1545
asS'lk'
p1546
(lp1547
S'203.143.29.3'
p1548
aS'123.231.6.18'
p1549
aS'192.248.8.17'
p1550
aS'202.129.235.229'
p1551
aS'204.61.216.27'
p1552
aS'203.94.66.129'
p1553
aS'192.248.1.162'
p1554
aS'128.10.2.5'
p1555
asS'li'
p1556
(lp1557
S'130.59.31.42'
p1558
aS'130.59.31.44'
p1559
aS'147.28.0.39'
p1560
aS'200.160.0.5'
p1561
aS'194.0.17.1'
p1562
aS'194.146.106.14'
p1563
aS'194.0.1.40'
p1564
aS'85.119.5.230'
p1565
asS'lv'
p1566
(lp1567
S'194.0.48.1'
p1568
aS'92.240.70.1'
p1569
aS'194.0.1.24'
p1570
aS'194.0.8.1'
p1571
aS'192.36.125.2'
p1572
asS'lt'
p1573
(lp1574
S'195.8.218.131'
p1575
aS'194.0.20.1'
p1576
aS'194.0.1.4'
p1577
aS'194.0.3.1'
p1578
aS'194.0.18.1'
p1579
aS'194.0.19.1'
p1580
asS'lu'
p1581
(lp1582
S'194.0.23.5'
p1583
aS'194.146.106.66'
p1584
aS'77.72.229.247'
p1585
aS'194.0.1.13'
p1586
aS'194.0.42.42'
p1587
aS'158.64.229.18'
p1588
asS'lr'
p1589
(lp1590
S'147.28.0.39'
p1591
aS'77.72.229.254'
p1592
aS'196.216.168.61'
p1593
asS'ls'
p1594
(lp1595
S'196.43.249.1'
p1596
aS'196.11.175.1'
p1597
aS'147.28.0.34'
p1598
aS'204.61.216.28'
p1599
aS'196.216.168.70'
p1600
asS'orange'
p1601
(lp1602
S'192.42.173.30'
p1603
aS'192.42.174.30'
p1604
aS'192.42.175.30'
p1605
aS'192.42.176.30'
p1606
asS'su'
p1607
(lp1608
S'193.232.128.6'
p1609
aS'194.85.252.62'
p1610
aS'194.190.124.17'
p1611
aS'193.232.142.17'
p1612
aS'193.232.156.17'
p1613
asS'holiday'
p1614
(lp1615
S'37.209.194.7'
p1616
aS'37.209.192.7'
p1617
aS'37.209.198.7'
p1618
aS'37.209.196.7'
p1619
asS'eus'
p1620
(lp1621
S'195.253.64.11'
p1622
aS'195.253.64.12'
p1623
aS'195.253.65.11'
p1624
aS'195.253.65.12'
p1625
asS'ly'
p1626
(lp1627
S'62.240.36.9'
p1628
aS'204.61.216.67'
p1629
aS'62.68.42.9'
p1630
aS'196.216.168.24'
p1631
aS'128.223.32.35'
p1632
asS'goog'
p1633
(lp1634
S'216.239.32.105'
p1635
aS'216.239.34.105'
p1636
aS'216.239.36.105'
p1637
aS'216.239.38.105'
p1638
aS'216.239.60.105'
p1639
asS'coffee'
p1640
(lp1641
S'37.209.194.7'
p1642
aS'37.209.192.7'
p1643
aS'37.209.198.7'
p1644
aS'37.209.196.7'
p1645
asS'finance'
p1646
(lp1647
S'37.209.194.7'
p1648
aS'37.209.192.7'
p1649
aS'37.209.198.7'
p1650
aS'37.209.196.7'
p1651
asS'ceo'
p1652
(lp1653
S'156.154.144.37'
p1654
aS'156.154.145.37'
p1655
aS'156.154.159.37'
p1656
aS'156.154.156.37'
p1657
aS'156.154.157.37'
p1658
aS'156.154.158.37'
p1659
asS'auto'
p1660
(lp1661
S'64.96.1.1'
p1662
aS'64.96.245.53'
p1663
aS'185.159.197.3'
p1664
aS'185.159.198.3'
p1665
asS'ye'
p1666
(lp1667
S'65.162.184.33'
p1668
aS'65.162.184.34'
p1669
aS'195.94.0.34'
p1670
aS'195.94.0.35'
p1671
asS'band'
p1672
(lp1673
S'37.209.194.7'
p1674
aS'37.209.192.7'
p1675
aS'37.209.198.7'
p1676
aS'37.209.196.7'
p1677
asS'ninja'
p1678
(lp1679
S'37.209.194.7'
p1680
aS'37.209.192.7'
p1681
aS'37.209.198.7'
p1682
aS'37.209.196.7'
p1683
asS'tatar'
p1684
(lp1685
S'193.232.128.6'
p1686
aS'194.85.252.62'
p1687
aS'194.190.124.17'
p1688
aS'193.232.142.17'
p1689
aS'193.232.156.17'
p1690
asS'yt'
p1691
(lp1692
S'192.5.4.2'
p1693
aS'194.0.9.1'
p1694
aS'193.176.144.22'
p1695
aS'194.146.106.46'
p1696
aS'194.0.36.1'
p1697
asS'bank'
p1698
(lp1699
S'192.42.173.30'
p1700
aS'192.42.174.30'
p1701
aS'192.42.175.30'
p1702
aS'192.42.176.30'
p1703
asS'name'
p1704
(lp1705
S'192.82.135.30'
p1706
aS'192.82.136.30'
p1707
aS'192.82.137.30'
p1708
aS'192.82.138.30'
p1709
asS'university'
p1710
(lp1711
S'37.209.194.7'
p1712
aS'37.209.192.7'
p1713
aS'37.209.198.7'
p1714
aS'37.209.196.7'
p1715
asS'rocks'
p1716
(lp1717
S'37.209.194.7'
p1718
aS'37.209.192.7'
p1719
aS'37.209.198.7'
p1720
aS'37.209.196.7'
p1721
asS'moda'
p1722
(lp1723
S'37.209.194.7'
p1724
aS'37.209.192.7'
p1725
aS'37.209.198.7'
p1726
aS'37.209.196.7'
p1727
asS'th'
p1728
(lp1729
S'122.155.23.64'
p1730
aS'203.159.64.64'
p1731
aS'194.0.1.28'
p1732
aS'202.28.0.1'
p1733
aS'199.6.1.30'
p1734
aS'149.20.64.3'
p1735
asS'fitness'
p1736
(lp1737
S'37.209.194.7'
p1738
aS'37.209.192.7'
p1739
aS'37.209.198.7'
p1740
aS'37.209.196.7'
p1741
asS'ifm'
p1742
(lp1743
S'195.253.64.11'
p1744
aS'195.253.64.12'
p1745
aS'195.253.65.11'
p1746
aS'195.253.65.12'
p1747
asS'globo'
p1748
(lp1749
S'200.160.0.10'
p1750
aS'200.189.41.10'
p1751
aS'200.192.233.10'
p1752
aS'200.219.154.10'
p1753
aS'200.229.248.10'
p1754
aS'200.219.159.10'
p1755
asS'map'
p1756
(lp1757
S'216.239.32.105'
p1758
aS'216.239.34.105'
p1759
aS'216.239.36.105'
p1760
aS'216.239.38.105'
p1761
aS'216.239.60.105'
p1762
asS'ee'
p1763
(lp1764
S'194.146.106.110'
p1765
aS'204.61.216.36'
p1766
aS'213.184.51.122'
p1767
aS'193.40.132.5'
p1768
aS'195.43.87.10'
p1769
asS'house'
p1770
(lp1771
S'37.209.194.7'
p1772
aS'37.209.192.7'
p1773
aS'37.209.198.7'
p1774
aS'37.209.196.7'
p1775
asS'eg'
p1776
(lp1777
S'193.171.255.77'
p1778
aS'147.28.0.39'
p1779
aS'193.227.1.1'
p1780
asS'poker'
p1781
(lp1782
S'65.22.20.33'
p1783
aS'65.22.23.33'
p1784
aS'65.22.21.33'
p1785
aS'65.22.22.33'
p1786
asS'ec'
p1787
(lp1788
S'200.0.68.10'
p1789
aS'200.12.199.1'
p1790
aS'204.61.216.39'
p1791
aS'192.5.4.1'
p1792
asS'eu'
p1793
(lp1794
S'185.151.141.1'
p1795
aS'194.146.106.90'
p1796
aS'162.88.56.1'
p1797
aS'93.190.128.138'
p1798
aS'91.200.16.100'
p1799
aS'193.2.221.60'
p1800
aS'195.66.241.178'
p1801
asS'et'
p1802
(lp1803
S'213.55.64.36'
p1804
aS'213.55.64.38'
p1805
aS'128.223.32.35'
p1806
asS'es'
p1807
(lp1808
S'194.69.254.1'
p1809
aS'130.206.1.7'
p1810
aS'204.61.217.1'
p1811
aS'84.88.0.3'
p1812
aS'192.134.0.49'
p1813
aS'200.1.123.14'
p1814
aS'192.5.4.1'
p1815
asS'ru'
p1816
(lp1817
S'193.232.128.6'
p1818
aS'194.85.252.62'
p1819
aS'194.190.124.17'
p1820
aS'193.232.142.17'
p1821
aS'193.232.156.17'
p1822
asS'rw'
p1823
(lp1824
S'41.74.173.250'
p1825
aS'41.138.85.98'
p1826
aS'204.61.216.91'
p1827
aS'77.72.229.254'
p1828
aS'196.216.168.28'
p1829
asS'network'
p1830
(lp1831
S'37.209.194.7'
p1832
aS'37.209.192.7'
p1833
aS'37.209.198.7'
p1834
aS'37.209.196.7'
p1835
asS'rs'
p1836
(lp1837
S'91.199.17.59'
p1838
aS'195.178.32.2'
p1839
aS'204.61.216.32'
p1840
aS'147.91.8.6'
p1841
aS'91.199.17.60'
p1842
aS'192.5.4.1'
p1843
aS'194.146.106.114'
p1844
asS'boutique'
p1845
(lp1846
S'37.209.194.7'
p1847
aS'37.209.192.7'
p1848
aS'37.209.198.7'
p1849
aS'37.209.196.7'
p1850
asS're'
p1851
(lp1852
S'192.5.4.2'
p1853
aS'194.0.9.1'
p1854
aS'193.176.144.22'
p1855
aS'194.146.106.46'
p1856
aS'194.0.36.1'
p1857
asS'health'
p1858
(lp1859
S'156.154.144.247'
p1860
aS'156.154.145.247'
p1861
aS'156.154.159.247'
p1862
aS'156.154.156.247'
p1863
aS'156.154.157.247'
p1864
aS'156.154.158.247'
p1865
asS'gov'
p1866
(lp1867
S'69.36.157.30'
p1868
aS'209.112.123.30'
p1869
aS'69.36.153.30'
p1870
aS'81.19.194.30'
p1871
asS'gop'
p1872
(lp1873
S'213.248.217.39'
p1874
aS'103.49.81.39'
p1875
aS'213.248.221.39'
p1876
aS'43.230.49.39'
p1877
aS'156.154.100.3'
p1878
aS'156.154.101.3'
p1879
aS'156.154.102.3'
p1880
aS'156.154.103.3'
p1881
asS'red'
p1882
(lp1883
S'65.22.36.25'
p1884
aS'65.22.39.25'
p1885
aS'65.22.37.25'
p1886
aS'65.22.38.25'
p1887
asS'foundation'
p1888
(lp1889
S'37.209.194.7'
p1890
aS'37.209.192.7'
p1891
aS'37.209.198.7'
p1892
aS'37.209.196.7'
p1893
asS'abbott'
p1894
(lp1895
S'65.22.156.41'
p1896
aS'65.22.159.41'
p1897
aS'65.22.157.41'
p1898
aS'65.22.158.41'
p1899
asS'wales'
p1900
(lp1901
S'213.248.217.2'
p1902
aS'103.49.81.2'
p1903
aS'213.248.221.2'
p1904
aS'43.230.49.2'
p1905
aS'156.154.100.3'
p1906
aS'156.154.101.3'
p1907
aS'156.154.102.3'
p1908
aS'156.154.103.3'
p1909
asS'eco'
p1910
(lp1911
S'65.22.216.17'
p1912
aS'65.22.219.17'
p1913
aS'65.22.217.17'
p1914
aS'65.22.218.17'
p1915
asS'cars'
p1916
(lp1917
S'64.96.1.1'
p1918
aS'64.96.245.53'
p1919
aS'185.159.197.3'
p1920
aS'185.159.198.3'
p1921
asS'team'
p1922
(lp1923
S'37.209.194.7'
p1924
aS'37.209.192.7'
p1925
aS'37.209.198.7'
p1926
aS'37.209.196.7'
p1927
asS'pub'
p1928
(lp1929
S'37.209.194.7'
p1930
aS'37.209.192.7'
p1931
aS'37.209.198.7'
p1932
aS'37.209.196.7'
p1933
asS'management'
p1934
(lp1935
S'37.209.194.7'
p1936
aS'37.209.192.7'
p1937
aS'37.209.198.7'
p1938
aS'37.209.196.7'
p1939
asS'vacations'
p1940
(lp1941
S'37.209.194.7'
p1942
aS'37.209.192.7'
p1943
aS'37.209.198.7'
p1944
aS'37.209.196.7'
p1945
asS'org'
p1946
(lp1947
S'199.19.56.1'
p1948
aS'199.249.112.1'
p1949
aS'199.19.54.1'
p1950
aS'199.249.120.1'
p1951
aS'199.19.53.1'
p1952
aS'199.19.57.1'
p1953
asS'sbi'
p1954
(lp1955
S'65.22.176.9'
p1956
aS'65.22.179.9'
p1957
aS'65.22.177.9'
p1958
aS'65.22.178.9'
p1959
asS'hermes'
p1960
(lp1961
S'65.22.232.25'
p1962
aS'65.22.235.25'
p1963
aS'65.22.233.25'
p1964
aS'65.22.234.25'
p1965
asS'care'
p1966
(lp1967
S'37.209.194.7'
p1968
aS'37.209.192.7'
p1969
aS'37.209.198.7'
p1970
aS'37.209.196.7'
p1971
asS'training'
p1972
(lp1973
S'37.209.194.7'
p1974
aS'37.209.192.7'
p1975
aS'37.209.198.7'
p1976
aS'37.209.196.7'
p1977
asS'organic'
p1978
(lp1979
S'65.22.20.40'
p1980
aS'65.22.23.40'
p1981
aS'65.22.21.40'
p1982
aS'65.22.22.40'
p1983
asS'recipes'
p1984
(lp1985
S'37.209.194.7'
p1986
aS'37.209.192.7'
p1987
aS'37.209.198.7'
p1988
aS'37.209.196.7'
p1989
asS'ist'
p1990
(lp1991
S'65.22.144.1'
p1992
aS'65.22.147.1'
p1993
aS'65.22.145.1'
p1994
aS'65.22.146.1'
p1995
asS'place'
p1996
(lp1997
S'37.209.194.7'
p1998
aS'37.209.192.7'
p1999
aS'37.209.198.7'
p2000
aS'37.209.196.7'
p2001
asS'ltd'
p2002
(lp2003
S'37.209.194.7'
p2004
aS'37.209.192.7'
p2005
aS'37.209.198.7'
p2006
aS'37.209.196.7'
p2007
asS'forsale'
p2008
(lp2009
S'37.209.194.7'
p2010
aS'37.209.192.7'
p2011
aS'37.209.198.7'
p2012
aS'37.209.196.7'
p2013
asS'support'
p2014
(lp2015
S'37.209.194.7'
p2016
aS'37.209.192.7'
p2017
aS'37.209.198.7'
p2018
aS'37.209.196.7'
p2019
asS'xn--y9a3aq'
p2020
(lp2021
S'77.72.229.254'
p2022
aS'194.0.1.26'
p2023
aS'204.61.216.96'
p2024
aS'195.43.75.53'
p2025
aS'192.5.4.1'
p2026
asS'onl'
p2027
(lp2028
S'65.22.136.1'
p2029
aS'65.22.139.1'
p2030
aS'65.22.137.1'
p2031
aS'65.22.138.1'
p2032
asS'ong'
p2033
(lp2034
S'199.19.56.1'
p2035
aS'199.249.112.1'
p2036
aS'199.19.54.1'
p2037
aS'199.249.120.1'
p2038
aS'199.19.53.1'
p2039
aS'199.19.57.1'
p2040
asS'one'
p2041
(lp2042
S'37.209.192.9'
p2043
aS'37.209.194.9'
p2044
aS'37.209.196.9'
p2045
aS'37.209.198.9'
p2046
asS'lat'
p2047
(lp2048
S'192.100.224.1'
p2049
aS'200.94.176.1'
p2050
aS'200.23.1.1'
p2051
asS'vote'
p2052
(lp2053
S'65.22.168.9'
p2054
aS'65.22.171.9'
p2055
aS'65.22.169.9'
p2056
aS'65.22.170.9'
p2057
asS'ovh'
p2058
(lp2059
S'194.0.9.1'
p2060
aS'194.146.106.46'
p2061
aS'194.0.36.1'
p2062
asS'city'
p2063
(lp2064
S'37.209.194.7'
p2065
aS'37.209.192.7'
p2066
aS'37.209.198.7'
p2067
aS'37.209.196.7'
p2068
asS'horse'
p2069
(lp2070
S'213.248.217.25'
p2071
aS'103.49.81.25'
p2072
aS'213.248.221.25'
p2073
aS'43.230.49.25'
p2074
aS'156.154.100.3'
p2075
aS'156.154.101.3'
p2076
aS'156.154.102.3'
p2077
aS'156.154.103.3'
p2078
asS'basketball'
p2079
(lp2080
S'194.169.218.71'
p2081
aS'185.24.64.71'
p2082
aS'212.18.248.71'
p2083
aS'212.18.249.71'
p2084
asS'top'
p2085
(lp2086
S'1.8.240.1'
p2087
aS'1.8.241.1'
p2088
aS'1.8.242.1'
p2089
aS'1.8.243.1'
p2090
aS'119.167.248.154'
p2091
aS'182.131.23.22'
p2092
aS'42.62.2.16'
p2093
asS'xin'
p2094
(lp2095
S'65.22.128.17'
p2096
aS'65.22.131.17'
p2097
aS'65.22.129.17'
p2098
aS'65.22.130.17'
p2099
asS'store'
p2100
(lp2101
S'194.169.218.45'
p2102
aS'185.24.64.45'
p2103
aS'185.38.99.8'
p2104
aS'108.59.161.8'
p2105
asS'gives'
p2106
(lp2107
S'37.209.194.7'
p2108
aS'37.209.192.7'
p2109
aS'37.209.198.7'
p2110
aS'37.209.196.7'
p2111
asS'kiwi'
p2112
(lp2113
S'185.159.197.1'
p2114
aS'185.159.198.1'
p2115
asS'academy'
p2116
(lp2117
S'37.209.194.7'
p2118
aS'37.209.192.7'
p2119
aS'37.209.198.7'
p2120
aS'37.209.196.7'
p2121
asS'moscow'
p2122
(lp2123
S'31.177.70.1'
p2124
aS'195.253.64.6'
p2125
aS'195.253.65.6'
p2126
aS'89.111.135.1'
p2127
asS'za'
p2128
(lp2129
S'194.146.106.78'
p2130
aS'196.4.160.27'
p2131
aS'204.61.216.55'
p2132
aS'192.5.4.1'
p2133
asS'pictet'
p2134
(lp2135
S'192.42.173.30'
p2136
aS'192.42.174.30'
p2137
aS'192.42.175.30'
p2138
aS'192.42.176.30'
p2139
asS'dentist'
p2140
(lp2141
S'37.209.194.7'
p2142
aS'37.209.192.7'
p2143
aS'37.209.198.7'
p2144
aS'37.209.196.7'
p2145
asS'pars'
p2146
(lp2147
S'72.0.49.5'
p2148
aS'199.19.5.15'
p2149
aS'72.42.113.5'
p2150
aS'199.19.6.15'
p2151
asS'flowers'
p2152
(lp2153
S'64.96.1.1'
p2154
aS'64.96.245.53'
p2155
aS'185.159.197.3'
p2156
aS'185.159.198.3'
p2157
asS'photos'
p2158
(lp2159
S'37.209.194.7'
p2160
aS'37.209.192.7'
p2161
aS'37.209.198.7'
p2162
aS'37.209.196.7'
p2163
asS'hsbc'
p2164
(lp2165
S'156.154.144.76'
p2166
aS'156.154.145.76'
p2167
aS'156.154.159.76'
p2168
aS'156.154.156.76'
p2169
aS'156.154.157.76'
p2170
aS'156.154.158.76'
p2171
asS'cards'
p2172
(lp2173
S'37.209.194.7'
p2174
aS'37.209.192.7'
p2175
aS'37.209.198.7'
p2176
aS'37.209.196.7'
p2177
asS'uol'
p2178
(lp2179
S'200.160.0.10'
p2180
aS'200.189.41.10'
p2181
aS'200.192.233.10'
p2182
aS'200.219.154.10'
p2183
aS'200.229.248.10'
p2184
aS'200.219.159.10'
p2185
asS'lease'
p2186
(lp2187
S'37.209.194.7'
p2188
aS'37.209.192.7'
p2189
aS'37.209.198.7'
p2190
aS'37.209.196.7'
p2191
asS'bet'
p2192
(lp2193
S'65.22.36.17'
p2194
aS'65.22.39.17'
p2195
aS'65.22.37.17'
p2196
aS'65.22.38.17'
p2197
asS'quebec'
p2198
(lp2199
S'195.253.64.11'
p2200
aS'195.253.64.12'
p2201
aS'195.253.65.11'
p2202
aS'195.253.65.12'
p2203
asS'fashion'
p2204
(lp2205
S'213.248.217.21'
p2206
aS'103.49.81.21'
p2207
aS'213.248.221.21'
p2208
aS'43.230.49.21'
p2209
aS'156.154.100.3'
p2210
aS'156.154.101.3'
p2211
aS'156.154.102.3'
p2212
aS'156.154.103.3'
p2213
asS'pro'
p2214
(lp2215
S'199.182.0.1'
p2216
aS'199.182.32.1'
p2217
aS'199.182.1.1'
p2218
aS'199.182.40.1'
p2219
aS'199.182.16.1'
p2220
aS'199.182.17.1'
p2221
asS'kred'
p2222
(lp2223
S'156.154.144.99'
p2224
aS'156.154.145.99'
p2225
aS'156.154.159.99'
p2226
aS'156.154.156.99'
p2227
aS'156.154.157.99'
p2228
aS'156.154.158.99'
p2229
asS'rent'
p2230
(lp2231
S'194.169.218.63'
p2232
aS'185.24.64.63'
p2233
aS'212.18.248.63'
p2234
aS'212.18.249.63'
p2235
asS'sap'
p2236
(lp2237
S'195.253.64.11'
p2238
aS'195.253.64.12'
p2239
aS'195.253.65.11'
p2240
aS'195.253.65.12'
p2241
asS'xn--ngbc5azd'
p2242
(lp2243
S'37.209.192.3'
p2244
aS'37.209.194.3'
p2245
aS'37.209.196.3'
p2246
aS'37.209.198.3'
p2247
asS'anz'
p2248
(lp2249
S'37.209.192.9'
p2250
aS'37.209.194.9'
p2251
aS'37.209.196.9'
p2252
aS'37.209.198.9'
p2253
asS'catholic'
p2254
(lp2255
S'37.209.192.9'
p2256
aS'37.209.194.9'
p2257
aS'37.209.196.9'
p2258
aS'37.209.198.9'
p2259
asS'mil'
p2260
(lp2261
S'199.252.157.234'
p2262
aS'199.252.162.234'
p2263
aS'199.252.154.234'
p2264
aS'199.252.143.234'
p2265
aS'199.252.180.234'
p2266
aS'199.252.155.234'
p2267
asS'agency'
p2268
(lp2269
S'37.209.194.7'
p2270
aS'37.209.192.7'
p2271
aS'37.209.198.7'
p2272
aS'37.209.196.7'
p2273
asS'gripe'
p2274
(lp2275
S'37.209.194.7'
p2276
aS'37.209.192.7'
p2277
aS'37.209.198.7'
p2278
aS'37.209.196.7'
p2279
asS'equipment'
p2280
(lp2281
S'37.209.194.7'
p2282
aS'37.209.192.7'
p2283
aS'37.209.198.7'
p2284
aS'37.209.196.7'
p2285
asS'ricoh'
p2286
(lp2287
S'37.209.192.4'
p2288
aS'37.209.194.4'
p2289
aS'37.209.196.4'
p2290
aS'37.209.198.4'
p2291
asS'build'
p2292
(lp2293
S'37.209.192.10'
p2294
aS'37.209.194.10'
p2295
aS'37.209.196.10'
p2296
aS'37.209.198.10'
p2297
asS'vn'
p2298
(lp2299
S'194.0.1.18'
p2300
aS'203.119.73.105'
p2301
aS'203.119.38.105'
p2302
aS'203.119.44.105'
p2303
aS'203.119.60.105'
p2304
aS'203.119.68.105'
p2305
aS'204.61.216.115'
p2306
asS'online'
p2307
(lp2308
S'194.169.218.54'
p2309
aS'185.24.64.54'
p2310
aS'185.38.99.7'
p2311
aS'108.59.161.7'
p2312
asS'so'
p2313
(lp2314
S'196.216.168.54'
p2315
aS'204.61.216.101'
p2316
asS'xn--80asehdb'
p2317
(lp2318
S'195.253.64.11'
p2319
aS'195.253.64.12'
p2320
aS'195.253.65.11'
p2321
aS'195.253.65.12'
p2322
asS'surf'
p2323
(lp2324
S'213.248.217.31'
p2325
aS'103.49.81.31'
p2326
aS'213.248.221.31'
p2327
aS'43.230.49.31'
p2328
aS'156.154.100.3'
p2329
aS'156.154.101.3'
p2330
aS'156.154.102.3'
p2331
aS'156.154.103.3'
p2332
asS'koeln'
p2333
(lp2334
S'195.253.64.11'
p2335
aS'195.253.64.12'
p2336
aS'195.253.65.11'
p2337
aS'195.253.65.12'
p2338
asS'sl'
p2339
(lp2340
S'62.90.247.118'
p2341
aS'208.109.17.150'
p2342
asS'aws'
p2343
(lp2344
S'156.154.144.19'
p2345
aS'156.154.145.19'
p2346
aS'156.154.159.19'
p2347
aS'156.154.156.19'
p2348
aS'156.154.157.19'
p2349
aS'156.154.158.19'
p2350
asS'systems'
p2351
(lp2352
S'37.209.194.7'
p2353
aS'37.209.192.7'
p2354
aS'37.209.198.7'
p2355
aS'37.209.196.7'
p2356
asS'accountants'
p2357
(lp2358
S'37.209.194.7'
p2359
aS'37.209.192.7'
p2360
aS'37.209.198.7'
p2361
aS'37.209.196.7'
p2362
asS'sc'
p2363
(lp2364
S'199.254.59.1'
p2365
aS'199.249.116.1'
p2366
aS'199.254.60.1'
p2367
aS'199.249.124.1'
p2368
aS'199.254.61.1'
p2369
aS'199.254.62.1'
p2370
aS'41.86.57.54'
p2371
asS'hiphop'
p2372
(lp2373
S'64.96.1.1'
p2374
aS'64.96.245.53'
p2375
aS'185.159.197.3'
p2376
aS'185.159.198.3'
p2377
asS'services'
p2378
(lp2379
S'37.209.194.7'
p2380
aS'37.209.192.7'
p2381
aS'37.209.198.7'
p2382
aS'37.209.196.7'
p2383
asS'gallery'
p2384
(lp2385
S'37.209.194.7'
p2386
aS'37.209.192.7'
p2387
aS'37.209.198.7'
p2388
aS'37.209.196.7'
p2389
asS'realtor'
p2390
(lp2391
S'192.42.173.30'
p2392
aS'192.42.174.30'
p2393
aS'192.42.175.30'
p2394
aS'192.42.176.30'
p2395
asS'webcam'
p2396
(lp2397
S'156.154.169.60'
p2398
aS'156.154.170.60'
p2399
aS'156.154.171.60'
p2400
aS'156.154.172.60'
p2401
aS'156.154.173.60'
p2402
aS'156.154.174.60'
p2403
asS'archi'
p2404
(lp2405
S'65.22.84.1'
p2406
aS'65.22.87.1'
p2407
aS'65.22.85.1'
p2408
aS'65.22.86.1'
p2409
asS'mortgage'
p2410
(lp2411
S'37.209.194.7'
p2412
aS'37.209.192.7'
p2413
aS'37.209.198.7'
p2414
aS'37.209.196.7'
p2415
asS'ke'
p2416
(lp2417
S'204.61.216.7'
p2418
aS'66.135.46.112'
p2419
aS'185.38.108.108'
p2420
aS'198.32.67.9'
p2421
aS'196.216.168.22'
p2422
asS'schule'
p2423
(lp2424
S'37.209.194.7'
p2425
aS'37.209.192.7'
p2426
aS'37.209.198.7'
p2427
aS'37.209.196.7'
p2428
asS'ki'
p2429
(lp2430
S'199.19.5.9'
p2431
aS'199.19.6.9'
p2432
aS'204.61.216.26'
p2433
aS'192.5.4.1'
p2434
asS'camp'
p2435
(lp2436
S'37.209.194.7'
p2437
aS'37.209.192.7'
p2438
aS'37.209.198.7'
p2439
aS'37.209.196.7'
p2440
asS'dog'
p2441
(lp2442
S'37.209.194.7'
p2443
aS'37.209.192.7'
p2444
aS'37.209.198.7'
p2445
aS'37.209.196.7'
p2446
asS'futbol'
p2447
(lp2448
S'37.209.194.7'
p2449
aS'37.209.192.7'
p2450
aS'37.209.198.7'
p2451
aS'37.209.196.7'
p2452
asS'sohu'
p2453
(lp2454
S'1.8.240.1'
p2455
aS'1.8.241.1'
p2456
aS'1.8.242.1'
p2457
aS'1.8.243.1'
p2458
aS'119.167.248.154'
p2459
aS'182.131.23.22'
p2460
aS'42.62.2.16'
p2461
asS'kr'
p2462
(lp2463
S'61.74.75.1'
p2464
aS'203.248.246.220'
p2465
aS'203.83.159.1'
p2466
aS'202.30.124.100'
p2467
aS'218.38.181.90'
p2468
aS'202.31.190.1'
p2469
asS'axa'
p2470
(lp2471
S'156.154.144.20'
p2472
aS'156.154.145.20'
p2473
aS'156.154.159.20'
p2474
aS'156.154.156.20'
p2475
aS'156.154.157.20'
p2476
aS'156.154.158.20'
p2477
asS'kw'
p2478
(lp2479
S'199.19.5.25'
p2480
aS'199.19.6.25'
p2481
aS'204.61.216.118'
p2482
aS'202.12.29.59'
p2483
aS'192.5.4.1'
p2484
asS'pictures'
p2485
(lp2486
S'37.209.194.7'
p2487
aS'37.209.192.7'
p2488
aS'37.209.198.7'
p2489
aS'37.209.196.7'
p2490
asS'kz'
p2491
(lp2492
S'194.0.21.5'
p2493
aS'185.79.212.7'
p2494
asS'ky'
p2495
(lp2496
S'64.96.1.1'
p2497
aS'64.96.245.53'
p2498
aS'185.159.197.3'
p2499
aS'185.159.198.3'
p2500
asS'wine'
p2501
(lp2502
S'37.209.194.7'
p2503
aS'37.209.192.7'
p2504
aS'37.209.198.7'
p2505
aS'37.209.196.7'
p2506
asS'bzh'
p2507
(lp2508
S'194.0.9.1'
p2509
aS'194.146.106.46'
p2510
aS'194.0.36.1'
p2511
asS'shop'
p2512
(lp2513
S'37.209.192.4'
p2514
aS'37.209.194.4'
p2515
aS'37.209.196.4'
p2516
aS'37.209.198.4'
p2517
asS'golf'
p2518
(lp2519
S'37.209.194.7'
p2520
aS'37.209.192.7'
p2521
aS'37.209.198.7'
p2522
aS'37.209.196.7'
p2523
asS'gold'
p2524
(lp2525
S'37.209.194.7'
p2526
aS'37.209.192.7'
p2527
aS'37.209.198.7'
p2528
aS'37.209.196.7'
p2529
asS'show'
p2530
(lp2531
S'37.209.194.7'
p2532
aS'37.209.192.7'
p2533
aS'37.209.198.7'
p2534
aS'37.209.196.7'
p2535
asS'cheap'
p2536
(lp2537
S'37.209.194.7'
p2538
aS'37.209.192.7'
p2539
aS'37.209.198.7'
p2540
aS'37.209.196.7'
p2541
asS'solutions'
p2542
(lp2543
S'37.209.194.7'
p2544
aS'37.209.192.7'
p2545
aS'37.209.198.7'
p2546
aS'37.209.196.7'
p2547
asS'earth'
p2548
(lp2549
S'156.154.144.230'
p2550
aS'156.154.145.230'
p2551
aS'156.154.159.230'
p2552
aS'156.154.156.230'
p2553
aS'156.154.157.230'
p2554
aS'156.154.158.230'
p2555
asS'neustar'
p2556
(lp2557
S'204.74.112.250'
p2558
aS'204.74.113.250'
p2559
aS'199.7.66.250'
p2560
aS'199.7.67.250'
p2561
aS'192.100.59.250'
p2562
aS'198.133.199.250'
p2563
asS'partners'
p2564
(lp2565
S'37.209.194.7'
p2566
aS'37.209.192.7'
p2567
aS'37.209.198.7'
p2568
aS'37.209.196.7'
p2569
asS'menu'
p2570
(lp2571
S'37.209.192.10'
p2572
aS'37.209.194.10'
p2573
aS'37.209.196.10'
p2574
aS'37.209.198.10'
p2575
asS'ngo'
p2576
(lp2577
S'199.19.56.1'
p2578
aS'199.249.112.1'
p2579
aS'199.19.54.1'
p2580
aS'199.249.120.1'
p2581
aS'199.19.53.1'
p2582
aS'199.19.57.1'
p2583
asS'kh'
p2584
(lp2585
S'203.223.32.3'
p2586
aS'203.223.32.21'
p2587
aS'203.119.43.53'
p2588
aS'203.189.128.1'
p2589
asS'flights'
p2590
(lp2591
S'37.209.194.7'
p2592
aS'37.209.192.7'
p2593
aS'37.209.198.7'
p2594
aS'37.209.196.7'
p2595
asS'sa'
p2596
(lp2597
S'37.107.223.170'
p2598
aS'37.107.255.170'
p2599
aS'212.26.18.3'
p2600
aS'86.111.192.9'
p2601
aS'86.111.196.9'
p2602
aS'194.146.106.102'
p2603
aS'204.61.216.41'
p2604
asS'black'
p2605
(lp2606
S'65.22.68.33'
p2607
aS'65.22.71.33'
p2608
aS'65.22.69.33'
p2609
aS'65.22.70.33'
p2610
asS'hockey'
p2611
(lp2612
S'37.209.194.7'
p2613
aS'37.209.192.7'
p2614
aS'37.209.198.7'
p2615
aS'37.209.196.7'
p2616
asS'photo'
p2617
(lp2618
S'64.96.1.1'
p2619
aS'64.96.245.53'
p2620
aS'185.159.197.3'
p2621
aS'185.159.198.3'
p2622
asS'barclaycard'
p2623
(lp2624
S'37.209.192.9'
p2625
aS'37.209.194.9'
p2626
aS'37.209.196.9'
p2627
aS'37.209.198.9'
p2628
asS'do'
p2629
(lp2630
S'200.16.91.228'
p2631
aS'200.16.91.226'
p2632
aS'200.16.90.162'
p2633
aS'149.20.61.87'
p2634
aS'200.33.111.1'
p2635
aS'128.223.32.35'
p2636
aS'192.5.4.1'
p2637
asS'dm'
p2638
(lp2639
S'81.17.240.204'
p2640
aS'199.127.196.35'
p2641
aS'78.153.202.4'
p2642
aS'194.0.1.34'
p2643
asS'dj'
p2644
(lp2645
S'197.241.17.130'
p2646
aS'196.201.196.41'
p2647
aS'37.59.106.21'
p2648
asS'dk'
p2649
(lp2650
S'212.88.78.122'
p2651
aS'193.163.102.222'
p2652
aS'194.0.46.53'
p2653
aS'192.38.7.242'
p2654
aS'194.0.47.42'
p2655
aS'193.176.144.15'
p2656
asS'gratis'
p2657
(lp2658
S'37.209.194.7'
p2659
aS'37.209.192.7'
p2660
aS'37.209.198.7'
p2661
aS'37.209.196.7'
p2662
asS'photography'
p2663
(lp2664
S'37.209.194.7'
p2665
aS'37.209.192.7'
p2666
aS'37.209.198.7'
p2667
aS'37.209.196.7'
p2668
asS'de'
p2669
(lp2670
S'194.0.0.53'
p2671
aS'81.91.164.5'
p2672
aS'77.67.63.105'
p2673
aS'194.146.107.6'
p2674
aS'195.243.137.26'
p2675
aS'194.246.96.1'
p2676
asS'watch'
p2677
(lp2678
S'37.209.194.7'
p2679
aS'37.209.192.7'
p2680
aS'37.209.198.7'
p2681
aS'37.209.196.7'
p2682
asS'xn--80ao21a'
p2683
(lp2684
S'194.0.21.5'
p2685
aS'185.79.212.7'
p2686
asS'dz'
p2687
(lp2688
S'193.194.64.242'
p2689
aS'213.179.160.66'
p2690
aS'192.134.0.49'
p2691
aS'204.61.216.103'
p2692
aS'193.0.9.71'
p2693
aS'196.216.168.36'
p2694
asS'citic'
p2695
(lp2696
S'1.8.240.1'
p2697
aS'1.8.241.1'
p2698
aS'1.8.242.1'
p2699
aS'1.8.243.1'
p2700
aS'119.167.248.154'
p2701
aS'182.131.23.22'
p2702
aS'42.62.2.16'
p2703
asS'report'
p2704
(lp2705
S'37.209.194.7'
p2706
aS'37.209.192.7'
p2707
aS'37.209.198.7'
p2708
aS'37.209.196.7'
p2709
asS'tips'
p2710
(lp2711
S'37.209.194.7'
p2712
aS'37.209.192.7'
p2713
aS'37.209.198.7'
p2714
aS'37.209.196.7'
p2715
asS'bar'
p2716
(lp2717
S'194.169.218.56'
p2718
aS'185.24.64.56'
p2719
aS'212.18.248.56'
p2720
aS'212.18.249.56'
p2721
asS'qa'
p2722
(lp2723
S'178.23.16.104'
p2724
aS'178.23.17.104'
p2725
aS'212.77.192.10'
p2726
aS'212.77.192.13'
p2727
aS'37.209.192.6'
p2728
aS'37.209.194.6'
p2729
aS'204.61.216.62'
p2730
asS'shiksha'
p2731
(lp2732
S'65.22.32.33'
p2733
aS'65.22.35.33'
p2734
aS'65.22.33.33'
p2735
aS'65.22.34.33'
p2736
asS'vision'
p2737
(lp2738
S'37.209.194.7'
p2739
aS'37.209.192.7'
p2740
aS'37.209.198.7'
p2741
aS'37.209.196.7'
p2742
asS'wiki'
p2743
(lp2744
S'194.169.218.30'
p2745
aS'185.24.64.30'
p2746
aS'212.18.248.30'
p2747
aS'212.18.249.30'
p2748
asS'art'
p2749
(lp2750
S'194.169.218.49'
p2751
aS'185.24.64.49'
p2752
aS'212.18.248.49'
p2753
aS'212.18.249.49'
p2754
asS'observer'
p2755
(lp2756
S'194.169.218.32'
p2757
aS'185.24.64.32'
p2758
aS'212.18.248.32'
p2759
aS'212.18.249.32'
p2760
asS'sex'
p2761
(lp2762
S'199.115.152.1'
p2763
aS'199.115.156.1'
p2764
aS'199.115.153.1'
p2765
aS'199.115.157.1'
p2766
aS'199.115.154.1'
p2767
aS'199.115.155.1'
p2768
asS'pink'
p2769
(lp2770
S'65.22.28.17'
p2771
aS'65.22.31.17'
p2772
aS'65.22.29.17'
p2773
aS'65.22.30.17'
p2774
asS'computer'
p2775
(lp2776
S'37.209.194.7'
p2777
aS'37.209.192.7'
p2778
aS'37.209.198.7'
p2779
aS'37.209.196.7'
p2780
asS'college'
p2781
(lp2782
S'194.169.218.44'
p2783
aS'185.24.64.44'
p2784
aS'212.18.248.44'
p2785
aS'212.18.249.44'
p2786
asS'leclerc'
p2787
(lp2788
S'194.0.9.1'
p2789
aS'194.146.106.46'
p2790
aS'194.0.36.1'
p2791
asS'fail'
p2792
(lp2793
S'37.209.194.7'
p2794
aS'37.209.192.7'
p2795
aS'37.209.198.7'
p2796
aS'37.209.196.7'
p2797
asS'xn--vuq861b'
p2798
(lp2799
S'103.61.60.1'
p2800
aS'103.61.61.1'
p2801
aS'103.61.62.1'
p2802
aS'103.61.63.1'
p2803
asS'news'
p2804
(lp2805
S'37.209.194.7'
p2806
aS'37.209.192.7'
p2807
aS'37.209.198.7'
p2808
aS'37.209.196.7'
p2809
asS'best'
p2810
(lp2811
S'156.154.144.24'
p2812
aS'156.154.145.24'
p2813
aS'156.154.159.24'
p2814
aS'156.154.156.24'
p2815
aS'156.154.157.24'
p2816
aS'156.154.158.24'
p2817
asS'gmail'
p2818
(lp2819
S'216.239.32.105'
p2820
aS'216.239.34.105'
p2821
aS'216.239.36.105'
p2822
aS'216.239.38.105'
p2823
aS'216.239.60.105'
p2824
asS'voyage'
p2825
(lp2826
S'37.209.194.7'
p2827
aS'37.209.192.7'
p2828
aS'37.209.198.7'
p2829
aS'37.209.196.7'
p2830
asS'expert'
p2831
(lp2832
S'37.209.194.7'
p2833
aS'37.209.192.7'
p2834
aS'37.209.198.7'
p2835
aS'37.209.196.7'
p2836
asS'movie'
p2837
(lp2838
S'37.209.194.7'
p2839
aS'37.209.192.7'
p2840
aS'37.209.198.7'
p2841
aS'37.209.196.7'
p2842
asS'review'
p2843
(lp2844
S'156.154.169.35'
p2845
aS'156.154.170.35'
p2846
aS'156.154.171.35'
p2847
aS'156.154.172.35'
p2848
aS'156.154.173.35'
p2849
aS'156.154.174.35'
p2850
asS'fans'
p2851
(lp2852
S'194.169.218.39'
p2853
aS'185.24.64.39'
p2854
aS'212.18.248.39'
p2855
aS'212.18.249.39'
p2856
asS'diamonds'
p2857
(lp2858
S'37.209.194.7'
p2859
aS'37.209.192.7'
p2860
aS'37.209.198.7'
p2861
aS'37.209.196.7'
p2862
asS'xn--6qq986b3xl'
p2863
(lp2864
S'1.8.240.1'
p2865
aS'1.8.241.1'
p2866
aS'1.8.242.1'
p2867
aS'1.8.243.1'
p2868
aS'119.167.248.154'
p2869
aS'182.131.23.22'
p2870
aS'42.62.2.16'
p2871
asS'email'
p2872
(lp2873
S'37.209.194.7'
p2874
aS'37.209.192.7'
p2875
aS'37.209.198.7'
p2876
aS'37.209.196.7'
p2877
asS'law'
p2878
(lp2879
S'213.248.217.26'
p2880
aS'103.49.81.26'
p2881
aS'213.248.221.26'
p2882
aS'43.230.49.26'
p2883
aS'156.154.100.3'
p2884
aS'156.154.101.3'
p2885
aS'156.154.102.3'
p2886
aS'156.154.103.3'
p2887
asS'wf'
p2888
(lp2889
S'192.5.4.2'
p2890
aS'194.0.9.1'
p2891
aS'193.176.144.22'
p2892
aS'194.146.106.46'
p2893
aS'194.0.36.1'
p2894
asS'jobs'
p2895
(lp2896
S'192.42.173.30'
p2897
aS'192.42.174.30'
p2898
aS'192.42.175.30'
p2899
aS'192.42.176.30'
p2900
asS'bargains'
p2901
(lp2902
S'37.209.194.7'
p2903
aS'37.209.192.7'
p2904
aS'37.209.198.7'
p2905
aS'37.209.196.7'
p2906
asS'osaka'
p2907
(lp2908
S'156.154.144.130'
p2909
aS'156.154.145.130'
p2910
aS'156.154.159.130'
p2911
aS'156.154.156.130'
p2912
aS'156.154.157.130'
p2913
aS'156.154.158.130'
p2914
asS'cern'
p2915
(lp2916
S'65.22.224.1'
p2917
aS'65.22.227.1'
p2918
aS'65.22.225.1'
p2919
aS'65.22.226.1'
p2920
asS'jp'
p2921
(lp2922
S'203.119.1.1'
p2923
aS'202.12.30.131'
p2924
aS'156.154.100.5'
p2925
aS'210.138.175.244'
p2926
aS'192.50.43.53'
p2927
aS'150.100.6.8'
p2928
aS'203.119.40.1'
p2929
aS'65.22.40.25'
p2930
asS'jm'
p2931
(lp2932
S'193.0.9.82'
p2933
aS'196.2.1.6'
p2934
aS'200.9.115.2'
p2935
aS'196.3.191.66'
p2936
aS'128.223.32.35'
p2937
asS'jo'
p2938
(lp2939
S'193.0.9.83'
p2940
aS'147.28.0.39'
p2941
aS'193.188.66.103'
p2942
aS'193.188.66.2'
p2943
aS'193.188.69.19'
p2944
asS'ws'
p2945
(lp2946
S'64.70.19.80'
p2947
aS'173.228.153.149'
p2948
aS'173.228.153.148'
p2949
aS'64.70.19.70'
p2950
aS'77.92.65.172'
p2951
aS'77.92.65.174'
p2952
asS'wtf'
p2953
(lp2954
S'37.209.194.7'
p2955
aS'37.209.192.7'
p2956
aS'37.209.198.7'
p2957
aS'37.209.196.7'
p2958
asS'je'
p2959
(lp2960
S'194.146.106.86'
p2961
aS'193.201.42.178'
p2962
aS'204.61.216.74'
p2963
aS'193.63.94.20'
p2964
aS'202.46.190.131'
p2965
asS'coupons'
p2966
(lp2967
S'37.209.194.7'
p2968
aS'37.209.192.7'
p2969
aS'37.209.198.7'
p2970
aS'37.209.196.7'
p2971
asS'cymru'
p2972
(lp2973
S'213.248.217.3'
p2974
aS'103.49.81.3'
p2975
aS'213.248.221.3'
p2976
aS'43.230.49.3'
p2977
aS'156.154.100.3'
p2978
aS'156.154.101.3'
p2979
aS'156.154.102.3'
p2980
aS'156.154.103.3'
p2981
asS'restaurant'
p2982
(lp2983
S'37.209.194.7'
p2984
aS'37.209.192.7'
p2985
aS'37.209.198.7'
p2986
aS'37.209.196.7'
p2987
asS'career'
p2988
(lp2989
S'192.42.173.30'
p2990
aS'192.42.174.30'
p2991
aS'192.42.175.30'
p2992
aS'192.42.176.30'
p2993
asS'ua'
p2994
(lp2995
S'194.0.1.9'
p2996
aS'216.218.215.27'
p2997
aS'195.47.253.1'
p2998
aS'204.61.216.12'
p2999
aS'192.5.4.1'
p3000
asS'komatsu'
p3001
(lp3002
S'37.209.192.4'
p3003
aS'37.209.194.4'
p3004
aS'37.209.196.4'
p3005
aS'37.209.198.4'
p3006
asS'games'
p3007
(lp3008
S'37.209.194.7'
p3009
aS'37.209.192.7'
p3010
aS'37.209.198.7'
p3011
aS'37.209.196.7'
p3012
asS'buzz'
p3013
(lp3014
S'156.154.144.29'
p3015
aS'156.154.145.29'
p3016
aS'156.154.159.29'
p3017
aS'156.154.156.29'
p3018
aS'156.154.157.29'
p3019
aS'156.154.158.29'
p3020
asS'fage'
p3021
(lp3022
S'65.22.156.33'
p3023
aS'65.22.159.33'
p3024
aS'65.22.157.33'
p3025
aS'65.22.158.33'
p3026
asS'com'
p3027
(lp3028
S'192.5.6.30'
p3029
aS'192.33.14.30'
p3030
aS'192.26.92.30'
p3031
aS'192.31.80.30'
p3032
aS'192.12.94.30'
p3033
aS'192.35.51.30'
p3034
aS'192.42.93.30'
p3035
aS'192.54.112.30'
p3036
aS'192.43.172.30'
p3037
aS'192.48.79.30'
p3038
aS'192.52.178.30'
p3039
aS'192.41.162.30'
p3040
aS'192.55.83.30'
p3041
asS'uno'
p3042
(lp3043
S'156.154.144.173'
p3044
aS'156.154.145.173'
p3045
aS'156.154.159.173'
p3046
aS'156.154.156.173'
p3047
aS'156.154.157.173'
p3048
aS'156.154.158.173'
p3049
asS'ck'
p3050
(lp3051
S'130.195.5.12'
p3052
aS'202.65.32.128'
p3053
aS'202.65.32.127'
p3054
aS'130.195.6.10'
p3055
asS'ro'
p3056
(lp3057
S'78.104.145.6'
p3058
aS'81.91.161.99'
p3059
aS'192.5.4.1'
p3060
aS'192.162.16.18'
p3061
aS'192.162.16.20'
p3062
aS'193.230.31.230'
p3063
asS'ci'
p3064
(lp3065
S'192.134.0.49'
p3066
aS'213.136.100.81'
p3067
aS'204.61.216.120'
p3068
aS'213.136.100.83'
p3069
aS'196.216.168.30'
p3070
aS'128.223.32.35'
p3071
aS'91.203.32.147'
p3072
asS'ch'
p3073
(lp3074
S'130.59.31.41'
p3075
aS'130.59.31.43'
p3076
aS'147.28.0.39'
p3077
aS'200.160.0.5'
p3078
aS'194.0.17.1'
p3079
aS'194.146.106.10'
p3080
aS'194.0.1.40'
p3081
aS'85.119.5.230'
p3082
asS'co'
p3083
(lp3084
S'156.154.100.25'
p3085
aS'156.154.101.25'
p3086
aS'156.154.102.25'
p3087
aS'156.154.103.25'
p3088
aS'156.154.104.25'
p3089
aS'156.154.105.25'
p3090
asS'cn'
p3091
(lp3092
S'203.119.25.1'
p3093
aS'203.119.26.1'
p3094
aS'203.119.27.1'
p3095
aS'203.119.28.1'
p3096
aS'203.119.29.1'
p3097
aS'202.112.0.44'
p3098
asS'cm'
p3099
(lp3100
S'156.106.192.121'
p3101
aS'195.24.192.35'
p3102
aS'195.24.192.34'
p3103
aS'198.6.1.82'
p3104
aS'195.24.192.17'
p3105
asS'cl'
p3106
(lp3107
S'190.124.27.10'
p3108
aS'200.7.4.7'
p3109
aS'200.16.112.16'
p3110
aS'194.146.106.34'
p3111
aS'204.61.216.30'
p3112
aS'192.5.4.1'
p3113
asS'cc'
p3114
(lp3115
S'192.42.173.30'
p3116
aS'192.42.174.30'
p3117
aS'192.42.175.30'
p3118
aS'192.42.176.30'
p3119
asS'ca'
p3120
(lp3121
S'185.159.196.2'
p3122
aS'198.182.167.1'
p3123
aS'199.4.144.2'
p3124
asS'cg'
p3125
(lp3126
S'192.36.125.2'
p3127
aS'151.80.35.161'
p3128
aS'41.185.30.170'
p3129
asS'cf'
p3130
(lp3131
S'185.21.168.17'
p3132
aS'185.21.169.17'
p3133
aS'185.21.170.17'
p3134
aS'185.21.171.17'
p3135
asS'community'
p3136
(lp3137
S'37.209.194.7'
p3138
aS'37.209.192.7'
p3139
aS'37.209.198.7'
p3140
aS'37.209.196.7'
p3141
asS'cd'
p3142
(lp3143
S'196.25.1.1'
p3144
aS'196.43.1.9'
p3145
aS'196.25.1.9'
p3146
aS'41.79.235.66'
p3147
aS'41.79.235.67'
p3148
aS'92.222.179.91'
p3149
asS'cz'
p3150
(lp3151
S'194.0.12.1'
p3152
aS'194.0.13.1'
p3153
aS'194.0.14.1'
p3154
aS'193.29.206.1'
p3155
asS'cy'
p3156
(lp3157
S'194.42.1.50'
p3158
aS'194.42.1.55'
p3159
aS'194.42.20.50'
p3160
aS'204.70.57.242'
p3161
aS'202.12.28.140'
p3162
aS'204.61.216.44'
p3163
aS'194.42.29.1'
p3164
aS'139.91.191.3'
p3165
asS'cx'
p3166
(lp3167
S'199.19.5.3'
p3168
aS'199.19.6.3'
p3169
aS'204.61.216.16'
p3170
asS'church'
p3171
(lp3172
S'37.209.194.7'
p3173
aS'37.209.192.7'
p3174
aS'37.209.198.7'
p3175
aS'37.209.196.7'
p3176
asS'cr'
p3177
(lp3178
S'200.107.82.100'
p3179
aS'200.0.68.10'
p3180
aS'204.61.216.89'
p3181
aS'194.0.11.107'
p3182
aS'185.159.197.100'
p3183
aS'185.159.198.100'
p3184
aS'200.33.111.1'
p3185
aS'200.1.123.14'
p3186
asS'trust'
p3187
(lp3188
S'37.209.192.10'
p3189
aS'37.209.194.10'
p3190
aS'37.209.196.10'
p3191
aS'37.209.198.10'
p3192
asS'cw'
p3193
(lp3194
S'193.0.9.86'
p3195
aS'193.63.94.20'
p3196
aS'198.93.177.21'
p3197
aS'190.112.254.244'
p3198
aS'200.26.199.99'
p3199
aS'65.208.122.63'
p3200
aS'65.208.122.36'
p3201
asS'cv'
p3202
(lp3203
S'204.61.216.105'
p3204
aS'41.221.192.220'
p3205
aS'185.39.208.18'
p3206
aS'198.6.1.82'
p3207
aS'204.152.184.64'
p3208
aS'192.5.4.1'
p3209
asS'cu'
p3210
(lp3211
S'193.0.9.70'
p3212
aS'200.160.0.5'
p3213
aS'169.158.128.136'
p3214
aS'204.59.1.222'
p3215
aS'169.158.128.88'
p3216
aS'147.28.0.39'
p3217
asS'bingo'
p3218
(lp3219
S'37.209.194.7'
p3220
aS'37.209.192.7'
p3221
aS'37.209.198.7'
p3222
aS'37.209.196.7'
p3223
asS'ps'
p3224
(lp3225
S'193.0.9.105'
p3226
aS'194.6.225.20'
p3227
aS'147.28.0.39'
p3228
aS'213.244.82.147'
p3229
aS'77.72.229.254'
p3230
aS'204.61.216.29'
p3231
asS'graphics'
p3232
(lp3233
S'37.209.194.7'
p3234
aS'37.209.192.7'
p3235
aS'37.209.198.7'
p3236
aS'37.209.196.7'
p3237
asS'java'
p3238
(lp3239
S'192.42.173.30'
p3240
aS'192.42.174.30'
p3241
aS'192.42.175.30'
p3242
aS'192.42.176.30'
p3243
asS'pw'
p3244
(lp3245
S'194.169.218.12'
p3246
aS'185.24.64.12'
p3247
aS'185.38.99.11'
p3248
aS'108.59.161.11'
p3249
asS'pt'
p3250
(lp3251
S'185.39.208.1'
p3252
aS'194.0.25.23'
p3253
aS'204.61.216.105'
p3254
aS'185.39.210.1'
p3255
aS'193.136.192.64'
p3256
aS'200.160.0.5'
p3257
aS'193.136.2.226'
p3258
aS'192.93.0.4'
p3259
aS'192.5.4.1'
p3260
asS'wien'
p3261
(lp3262
S'91.195.198.153'
p3263
aS'194.58.192.33'
p3264
aS'194.58.198.33'
p3265
aS'185.42.137.99'
p3266
asS'py'
p3267
(lp3268
S'200.160.0.5'
p3269
aS'130.59.31.30'
p3270
aS'200.0.68.10'
p3271
aS'200.33.111.1'
p3272
aS'204.61.216.107'
p3273
aS'198.6.1.65'
p3274
asS'frl'
p3275
(lp3276
S'194.169.218.87'
p3277
aS'185.24.64.87'
p3278
aS'212.18.248.87'
p3279
aS'212.18.249.87'
p3280
asS'ai'
p3281
(lp3282
S'185.17.236.93'
p3283
aS'209.68.1.11'
p3284
aS'108.166.113.245'
p3285
aS'204.61.216.123'
p3286
aS'209.59.119.1'
p3287
asS'beer'
p3288
(lp3289
S'213.248.217.15'
p3290
aS'103.49.81.15'
p3291
aS'213.248.221.15'
p3292
aS'43.230.49.15'
p3293
aS'156.154.100.3'
p3294
aS'156.154.101.3'
p3295
aS'156.154.102.3'
p3296
aS'156.154.103.3'
p3297
asS'pa'
p3298
(lp3299
S'168.77.8.2'
p3300
aS'200.160.0.5'
p3301
aS'168.77.8.4'
p3302
aS'200.107.82.100'
p3303
aS'168.77.8.7'
p3304
aS'200.1.123.14'
p3305
aS'192.5.4.1'
p3306
asS'pf'
p3307
(lp3308
S'202.3.225.10'
p3309
aS'202.3.225.20'
p3310
asS'pg'
p3311
(lp3312
S'137.39.1.3'
p3313
aS'202.165.192.23'
p3314
aS'202.1.32.49'
p3315
aS'202.165.192.24'
p3316
aS'202.29.151.3'
p3317
asS'whoswho'
p3318
(lp3319
S'156.154.144.180'
p3320
aS'156.154.145.180'
p3321
aS'156.154.159.180'
p3322
aS'156.154.156.180'
p3323
aS'156.154.157.180'
p3324
aS'156.154.158.180'
p3325
asS'pe'
p3326
(lp3327
S'204.61.216.85'
p3328
aS'194.146.106.82'
p3329
aS'200.1.176.4'
p3330
aS'192.5.4.1'
p3331
asS'pk'
p3332
(lp3333
S'162.252.84.2'
p3334
aS'199.192.75.54'
p3335
aS'107.6.178.178'
p3336
aS'119.81.34.90'
p3337
asS'ph'
p3338
(lp3339
S'206.51.255.1'
p3340
aS'194.0.1.23'
p3341
aS'137.189.6.21'
p3342
aS'203.119.43.53'
p3343
aS'192.5.4.1'
p3344
asS'kitchen'
p3345
(lp3346
S'37.209.194.7'
p3347
aS'37.209.192.7'
p3348
aS'37.209.198.7'
p3349
aS'37.209.196.7'
p3350
asS'pn'
p3351
(lp3352
S'173.230.153.180'
p3353
aS'80.68.93.100'
p3354
aS'77.72.229.254'
p3355
aS'192.5.4.1'
p3356
asS'pl'
p3357
(lp3358
S'194.181.87.156'
p3359
aS'192.195.72.53'
p3360
aS'93.190.128.146'
p3361
aS'81.15.133.186'
p3362
aS'46.28.245.82'
p3363
aS'77.79.212.238'
p3364
aS'149.156.1.252'
p3365
aS'194.0.1.2'
p3366
aS'156.154.100.15'
p3367
asS'pm'
p3368
(lp3369
S'192.5.4.2'
p3370
aS'194.0.9.1'
p3371
aS'193.176.144.22'
p3372
aS'194.146.106.46'
p3373
aS'194.0.36.1'
p3374
asS'website'
p3375
(lp3376
S'194.169.218.52'
p3377
aS'185.24.64.52'
p3378
aS'185.38.99.1'
p3379
aS'108.59.161.1'
p3380
asS'life'
p3381
(lp3382
S'37.209.194.7'
p3383
aS'37.209.192.7'
p3384
aS'37.209.198.7'
p3385
aS'37.209.196.7'
p3386
asS'shopping'
p3387
(lp3388
S'37.209.194.7'
p3389
aS'37.209.192.7'
p3390
aS'37.209.198.7'
p3391
aS'37.209.196.7'
p3392
asS'xn--j1amh'
p3393
(lp3394
S'212.1.66.247'
p3395
aS'142.4.207.159'
p3396
aS'195.123.1.7'
p3397
aS'37.187.75.31'
p3398
aS'193.110.163.134'
p3399
asS'aero'
p3400
(lp3401
S'199.254.51.1'
p3402
aS'199.249.115.1'
p3403
aS'199.254.52.1'
p3404
aS'199.249.123.1'
p3405
aS'199.254.53.1'
p3406
aS'199.254.54.1'
p3407
asS'enterprises'
p3408
(lp3409
S'37.209.194.7'
p3410
aS'37.209.192.7'
p3411
aS'37.209.198.7'
p3412
aS'37.209.196.7'
p3413
asS'bms'
p3414
(lp3415
S'192.42.173.30'
p3416
aS'192.42.174.30'
p3417
aS'192.42.175.30'
p3418
aS'192.42.176.30'
p3419
asS'gal'
p3420
(lp3421
S'195.253.64.11'
p3422
aS'195.253.64.12'
p3423
aS'195.253.65.11'
p3424
aS'195.253.65.12'
p3425
asS'hamburg'
p3426
(lp3427
S'194.0.25.21'
p3428
aS'194.0.26.10'
p3429
aS'194.0.24.10'
p3430
asS'nrw'
p3431
(lp3432
S'195.253.64.11'
p3433
aS'195.253.64.12'
p3434
aS'195.253.65.11'
p3435
aS'195.253.65.12'
p3436
asS'schmidt'
p3437
(lp3438
S'37.209.192.9'
p3439
aS'37.209.194.9'
p3440
aS'37.209.196.9'
p3441
aS'37.209.198.9'
p3442
asS'casa'
p3443
(lp3444
S'213.248.217.18'
p3445
aS'103.49.81.18'
p3446
aS'213.248.221.18'
p3447
aS'43.230.49.18'
p3448
aS'156.154.100.3'
p3449
aS'156.154.101.3'
p3450
aS'156.154.102.3'
p3451
aS'156.154.103.3'
p3452
asS'cash'
p3453
(lp3454
S'37.209.194.7'
p3455
aS'37.209.192.7'
p3456
aS'37.209.198.7'
p3457
aS'37.209.196.7'
p3458
asS'auction'
p3459
(lp3460
S'37.209.194.7'
p3461
aS'37.209.192.7'
p3462
aS'37.209.198.7'
p3463
aS'37.209.196.7'
p3464
asS'ar'
p3465
(lp3466
S'200.108.145.50'
p3467
aS'200.108.147.50'
p3468
aS'200.108.148.50'
p3469
aS'170.238.66.50'
p3470
aS'193.0.9.59'
p3471
aS'130.59.31.29'
p3472
asS'fun'
p3473
(lp3474
S'194.169.218.72'
p3475
aS'185.24.64.72'
p3476
aS'185.38.99.12'
p3477
aS'108.59.161.12'
p3478
asS'aig'
p3479
(lp3480
S'156.154.144.6'
p3481
aS'156.154.145.6'
p3482
aS'156.154.159.6'
p3483
aS'156.154.156.6'
p3484
aS'156.154.157.6'
p3485
aS'156.154.158.6'
p3486
asS'property'
p3487
(lp3488
S'64.96.1.1'
p3489
aS'64.96.245.53'
p3490
aS'185.159.197.3'
p3491
aS'185.159.198.3'
p3492
asS'guide'
p3493
(lp3494
S'37.209.194.7'
p3495
aS'37.209.192.7'
p3496
aS'37.209.198.7'
p3497
aS'37.209.196.7'
p3498
asS'yokohama'
p3499
(lp3500
S'37.209.192.4'
p3501
aS'37.209.194.4'
p3502
aS'37.209.196.4'
p3503
aS'37.209.198.4'
p3504
asS'va'
p3505
(lp3506
S'193.0.9.123'
p3507
aS'192.12.192.5'
p3508
aS'212.77.0.110'
p3509
aS'193.201.40.7'
p3510
aS'193.201.40.6'
p3511
aS'212.77.0.2'
p3512
asS'vc'
p3513
(lp3514
S'199.254.59.1'
p3515
aS'199.249.116.1'
p3516
aS'199.254.60.1'
p3517
aS'199.249.124.1'
p3518
aS'199.254.61.1'
p3519
aS'199.254.62.1'
p3520
asS'aw'
p3521
(lp3522
S'193.176.144.13'
p3523
aS'213.154.241.88'
p3524
aS'194.171.17.13'
p3525
aS'95.142.99.215'
p3526
aS'194.0.28.2'
p3527
aS'201.229.0.26'
p3528
aS'201.229.0.27'
p3529
asS'vg'
p3530
(lp3531
S'162.88.52.1'
p3532
aS'162.88.53.1'
p3533
aS'204.61.216.84'
p3534
asS'iq'
p3535
(lp3536
S'194.117.57.100'
p3537
aS'199.19.5.8'
p3538
aS'199.19.6.8'
p3539
aS'192.5.4.1'
p3540
aS'194.117.58.42'
p3541
asS'ventures'
p3542
(lp3543
S'37.209.194.7'
p3544
aS'37.209.192.7'
p3545
aS'37.209.198.7'
p3546
aS'37.209.196.7'
p3547
asS'is'
p3548
(lp3549
S'204.61.216.116'
p3550
aS'194.146.106.58'
p3551
aS'192.36.125.2'
p3552
aS'130.208.16.20'
p3553
aS'193.4.58.51'
p3554
aS'192.5.4.1'
p3555
asS'ir'
p3556
(lp3557
S'193.189.123.2'
p3558
aS'193.189.122.83'
p3559
aS'193.0.9.85'
p3560
aS'193.171.255.77'
p3561
asS'canon'
p3562
(lp3563
S'37.209.192.4'
p3564
aS'37.209.194.4'
p3565
aS'37.209.196.4'
p3566
aS'37.209.198.4'
p3567
asS'it'
p3568
(lp3569
S'194.0.16.215'
p3570
aS'217.29.76.4'
p3571
aS'193.206.141.46'
p3572
aS'194.146.106.30'
p3573
aS'192.12.192.5'
p3574
aS'194.119.192.34'
p3575
asS'rip'
p3576
(lp3577
S'37.209.194.7'
p3578
aS'37.209.192.7'
p3579
aS'37.209.198.7'
p3580
aS'37.209.196.7'
p3581
asS'rio'
p3582
(lp3583
S'200.160.0.10'
p3584
aS'200.189.41.10'
p3585
aS'200.192.233.10'
p3586
aS'200.219.154.10'
p3587
aS'200.229.248.10'
p3588
aS'200.219.159.10'
p3589
asS'im'
p3590
(lp3591
S'193.62.157.66'
p3592
aS'217.23.163.140'
p3593
aS'217.23.160.50'
p3594
aS'80.168.83.242'
p3595
asS'il'
p3596
(lp3597
S'194.146.106.122'
p3598
aS'162.88.57.1'
p3599
aS'194.0.11.103'
p3600
aS'192.115.7.53'
p3601
aS'192.115.7.60'
p3602
aS'192.115.141.253'
p3603
aS'128.139.35.5'
p3604
aS'128.139.34.240'
p3605
aS'192.5.4.1'
p3606
asS'io'
p3607
(lp3608
S'65.22.160.17'
p3609
aS'65.22.163.17'
p3610
aS'65.22.161.17'
p3611
aS'65.22.162.17'
p3612
aS'194.0.1.1'
p3613
aS'74.116.178.1'
p3614
asS'in'
p3615
(lp3616
S'199.7.87.1'
p3617
aS'115.249.164.142'
p3618
aS'199.249.117.1'
p3619
aS'199.253.56.1'
p3620
aS'180.179.215.70'
p3621
aS'199.249.125.1'
p3622
aS'199.253.57.1'
p3623
asS'ie'
p3624
(lp3625
S'77.72.72.44'
p3626
aS'77.72.72.34'
p3627
aS'194.146.106.98'
p3628
aS'77.72.229.245'
p3629
aS'199.19.2.1'
p3630
aS'199.19.3.1'
p3631
aS'192.111.39.100'
p3632
aS'192.93.0.4'
p3633
asS'id'
p3634
(lp3635
S'202.155.30.227'
p3636
aS'103.19.179.179'
p3637
aS'103.19.178.178'
p3638
aS'103.19.177.177'
p3639
aS'202.12.28.140'
p3640
asS'audi'
p3641
(lp3642
S'65.22.208.17'
p3643
aS'65.22.211.17'
p3644
aS'65.22.209.17'
p3645
aS'65.22.210.17'
p3646
asS'tattoo'
p3647
(lp3648
S'64.96.1.1'
p3649
aS'64.96.245.53'
p3650
aS'185.159.197.3'
p3651
aS'185.159.198.3'
p3652
asS'az'
p3653
(lp3654
S'195.47.253.13'
p3655
aS'147.28.0.39'
p3656
asS'doctor'
p3657
(lp3658
S'37.209.194.7'
p3659
aS'37.209.192.7'
p3660
aS'37.209.198.7'
p3661
aS'37.209.196.7'
p3662
asS'media'
p3663
(lp3664
S'37.209.194.7'
p3665
aS'37.209.192.7'
p3666
aS'37.209.198.7'
p3667
aS'37.209.196.7'
p3668
asS'parts'
p3669
(lp3670
S'37.209.194.7'
p3671
aS'37.209.192.7'
p3672
aS'37.209.198.7'
p3673
aS'37.209.196.7'
p3674
asS'party'
p3675
(lp3676
S'156.154.169.24'
p3677
aS'156.154.170.24'
p3678
aS'156.154.171.24'
p3679
aS'156.154.172.24'
p3680
aS'156.154.173.24'
p3681
aS'156.154.174.24'
p3682
asS'events'
p3683
(lp3684
S'37.209.194.7'
p3685
aS'37.209.192.7'
p3686
aS'37.209.198.7'
p3687
aS'37.209.196.7'
p3688
asS'ac'
p3689
(lp3690
S'65.22.160.1'
p3691
aS'65.22.163.1'
p3692
aS'65.22.161.1'
p3693
aS'65.22.162.1'
p3694
aS'194.0.1.1'
p3695
aS'74.116.178.1'
p3696
asS'xn--d1acj3b'
p3697
(lp3698
S'193.232.128.6'
p3699
aS'194.85.252.62'
p3700
aS'194.190.124.17'
p3701
aS'193.232.142.17'
p3702
aS'193.232.156.17'
p3703
asS'promo'
p3704
(lp3705
S'65.22.244.9'
p3706
aS'65.22.247.9'
p3707
aS'65.22.245.9'
p3708
aS'65.22.246.9'
p3709
asS'xn--fiqs8s'
p3710
(lp3711
S'125.208.32.1'
p3712
aS'125.208.33.1'
p3713
aS'125.208.34.1'
p3714
aS'125.208.35.1'
p3715
aS'125.208.36.1'
p3716
asS'reisen'
p3717
(lp3718
S'37.209.194.7'
p3719
aS'37.209.192.7'
p3720
aS'37.209.198.7'
p3721
aS'37.209.196.7'
p3722
asS'jetzt'
p3723
(lp3724
S'37.209.194.7'
p3725
aS'37.209.192.7'
p3726
aS'37.209.198.7'
p3727
aS'37.209.196.7'
p3728
asS'sandvik'
p3729
(lp3730
S'37.209.192.9'
p3731
aS'37.209.194.9'
p3732
aS'37.209.196.9'
p3733
aS'37.209.198.9'
p3734
asS'kim'
p3735
(lp3736
S'65.22.28.1'
p3737
aS'65.22.31.1'
p3738
aS'65.22.29.1'
p3739
aS'65.22.30.1'
p3740
asS'yoga'
p3741
(lp3742
S'213.248.217.36'
p3743
aS'103.49.81.36'
p3744
aS'213.248.221.36'
p3745
aS'43.230.49.36'
p3746
aS'156.154.100.3'
p3747
aS'156.154.101.3'
p3748
aS'156.154.102.3'
p3749
aS'156.154.103.3'
p3750
asS'brussels'
p3751
(lp3752
S'194.0.6.1'
p3753
aS'194.0.37.1'
p3754
aS'194.0.43.1'
p3755
aS'194.0.44.1'
p3756
aS'194.0.1.10'
p3757
aS'120.29.253.8'
p3758
asS'insure'
p3759
(lp3760
S'37.209.194.7'
p3761
aS'37.209.192.7'
p3762
aS'37.209.198.7'
p3763
aS'37.209.196.7'
p3764
asS'mobi'
p3765
(lp3766
S'199.254.55.1'
p3767
aS'199.249.118.1'
p3768
aS'199.254.56.1'
p3769
aS'199.249.126.1'
p3770
aS'199.254.57.1'
p3771
aS'199.254.58.1'
p3772
asS'theater'
p3773
(lp3774
S'37.209.194.7'
p3775
aS'37.209.192.7'
p3776
aS'37.209.198.7'
p3777
aS'37.209.196.7'
p3778
asS'center'
p3779
(lp3780
S'37.209.194.7'
p3781
aS'37.209.192.7'
p3782
aS'37.209.198.7'
p3783
aS'37.209.196.7'
p3784
asS'cuisinella'
p3785
(lp3786
S'37.209.192.9'
p3787
aS'37.209.194.9'
p3788
aS'37.209.196.9'
p3789
aS'37.209.198.9'
p3790
asS'taipei'
p3791
(lp3792
S'156.154.144.156'
p3793
aS'156.154.145.156'
p3794
aS'156.154.159.156'
p3795
aS'156.154.156.156'
p3796
aS'156.154.157.156'
p3797
aS'156.154.158.156'
p3798
asS'swiss'
p3799
(lp3800
S'195.253.64.9'
p3801
aS'195.253.65.9'
p3802
aS'194.0.25.15'
p3803
aS'195.253.64.11'
p3804
aS'195.253.64.12'
p3805
aS'195.253.65.11'
p3806
aS'195.253.65.12'
p3807
asS'claims'
p3808
(lp3809
S'37.209.194.7'
p3810
aS'37.209.192.7'
p3811
aS'37.209.198.7'
p3812
aS'37.209.196.7'
p3813
asS'audio'
p3814
(lp3815
S'64.96.1.1'
p3816
aS'64.96.245.53'
p3817
aS'185.159.197.3'
p3818
aS'185.159.198.3'
p3819
asS'investments'
p3820
(lp3821
S'37.209.194.7'
p3822
aS'37.209.192.7'
p3823
aS'37.209.198.7'
p3824
aS'37.209.196.7'
p3825
asS'juegos'
p3826
(lp3827
S'64.96.1.1'
p3828
aS'64.96.245.53'
p3829
aS'185.159.197.3'
p3830
aS'185.159.198.3'
p3831
asS'taxi'
p3832
(lp3833
S'37.209.194.7'
p3834
aS'37.209.192.7'
p3835
aS'37.209.198.7'
p3836
aS'37.209.196.7'
p3837
asS'praxi'
p3838
(lp3839
S'156.154.144.139'
p3840
aS'156.154.145.139'
p3841
aS'156.154.159.139'
p3842
aS'156.154.156.139'
p3843
aS'156.154.157.139'
p3844
aS'156.154.158.139'
p3845
asS'money'
p3846
(lp3847
S'37.209.194.7'
p3848
aS'37.209.192.7'
p3849
aS'37.209.198.7'
p3850
aS'37.209.196.7'
p3851
asS'rest'
p3852
(lp3853
S'194.169.218.35'
p3854
aS'185.24.64.35'
p3855
aS'212.18.248.35'
p3856
aS'212.18.249.35'
p3857
asS'tirol'
p3858
(lp3859
S'194.0.25.20'
p3860
aS'194.0.26.9'
p3861
aS'194.0.24.9'
p3862
asS'clinic'
p3863
(lp3864
S'37.209.194.7'
p3865
aS'37.209.192.7'
p3866
aS'37.209.198.7'
p3867
aS'37.209.196.7'
p3868
asS'fishing'
p3869
(lp3870
S'213.248.217.22'
p3871
aS'103.49.81.22'
p3872
aS'213.248.221.22'
p3873
aS'43.230.49.22'
p3874
aS'156.154.100.3'
p3875
aS'156.154.101.3'
p3876
aS'156.154.102.3'
p3877
aS'156.154.103.3'
p3878
asS'ng'
p3879
(lp3880
S'194.0.1.29'
p3881
aS'204.61.216.40'
p3882
aS'196.216.168.41'
p3883
aS'41.222.79.3'
p3884
asS'toray'
p3885
(lp3886
S'37.209.192.4'
p3887
aS'37.209.194.4'
p3888
aS'37.209.196.4'
p3889
aS'37.209.198.4'
p3890
asS'gdn'
p3891
(lp3892
S'194.0.25.18'
p3893
aS'194.0.26.11'
p3894
aS'194.0.24.11'
p3895
asS'ads'
p3896
(lp3897
S'216.239.32.105'
p3898
aS'216.239.34.105'
p3899
aS'216.239.36.105'
p3900
aS'216.239.38.105'
p3901
aS'216.239.60.105'
p3902
asS'supply'
p3903
(lp3904
S'37.209.194.7'
p3905
aS'37.209.192.7'
p3906
aS'37.209.198.7'
p3907
aS'37.209.196.7'
p3908
asS'sky'
p3909
(lp3910
S'192.42.173.30'
p3911
aS'192.42.174.30'
p3912
aS'192.42.175.30'
p3913
aS'192.42.176.30'
p3914
asS'xn--6frz82g'
p3915
(lp3916
S'65.22.24.9'
p3917
aS'65.22.27.9'
p3918
aS'65.22.25.9'
p3919
aS'65.22.26.9'
p3920
asS'pharmacy'
p3921
(lp3922
S'156.154.144.135'
p3923
aS'156.154.145.135'
p3924
aS'156.154.159.135'
p3925
aS'156.154.156.135'
p3926
aS'156.154.157.135'
p3927
aS'156.154.158.135'
p3928
asS'blog'
p3929
(lp3930
S'213.248.217.9'
p3931
aS'103.49.81.9'
p3932
aS'213.248.221.9'
p3933
aS'43.230.49.9'
p3934
aS'156.154.100.3'
p3935
aS'156.154.101.3'
p3936
aS'156.154.102.3'
p3937
aS'156.154.103.3'
p3938
asS'scot'
p3939
(lp3940
S'195.253.64.11'
p3941
aS'195.253.64.12'
p3942
aS'195.253.65.11'
p3943
aS'195.253.65.12'
p3944
asS'blackfriday'
p3945
(lp3946
S'64.96.1.1'
p3947
aS'64.96.245.53'
p3948
aS'185.159.197.3'
p3949
aS'185.159.198.3'
p3950
asS'ski'
p3951
(lp3952
S'65.22.84.17'
p3953
aS'65.22.87.17'
p3954
aS'65.22.85.17'
p3955
aS'65.22.86.17'
p3956
asS'loan'
p3957
(lp3958
S'156.154.144.106'
p3959
aS'156.154.145.106'
p3960
aS'156.154.159.106'
p3961
aS'156.154.156.106'
p3962
aS'156.154.157.106'
p3963
aS'156.154.158.106'
p3964
asS'careers'
p3965
(lp3966
S'37.209.194.7'
p3967
aS'37.209.192.7'
p3968
aS'37.209.198.7'
p3969
aS'37.209.196.7'
p3970
asS'luxury'
p3971
(lp3972
S'37.209.192.10'
p3973
aS'37.209.194.10'
p3974
aS'37.209.196.10'
p3975
aS'37.209.198.10'
p3976
asS'bio'
p3977
(lp3978
S'65.22.84.9'
p3979
aS'65.22.87.9'
p3980
aS'65.22.85.9'
p3981
aS'65.22.86.9'
p3982
asS'vin'
p3983
(lp3984
S'37.209.194.7'
p3985
aS'37.209.192.7'
p3986
aS'37.209.198.7'
p3987
aS'37.209.196.7'
p3988
asS'bid'
p3989
(lp3990
S'156.154.144.25'
p3991
aS'156.154.145.25'
p3992
aS'156.154.159.25'
p3993
aS'156.154.156.25'
p3994
aS'156.154.157.25'
p3995
aS'156.154.158.25'
p3996
asS'fyi'
p3997
(lp3998
S'37.209.194.7'
p3999
aS'37.209.192.7'
p4000
aS'37.209.198.7'
p4001
aS'37.209.196.7'
p4002
asS'haus'
p4003
(lp4004
S'37.209.194.7'
p4005
aS'37.209.192.7'
p4006
aS'37.209.198.7'
p4007
aS'37.209.196.7'
p4008
asS'game'
p4009
(lp4010
S'64.96.1.1'
p4011
aS'64.96.245.53'
p4012
aS'185.159.197.3'
p4013
aS'185.159.198.3'
p4014
asS'quest'
p4015
(lp4016
S'37.209.192.9'
p4017
aS'37.209.194.9'
p4018
aS'37.209.196.9'
p4019
aS'37.209.198.9'
p4020
asS'biz'
p4021
(lp4022
S'156.154.124.65'
p4023
aS'156.154.125.65'
p4024
aS'156.154.127.65'
p4025
aS'156.154.126.65'
p4026
aS'209.173.58.66'
p4027
aS'156.154.128.65'
p4028
asS'desi'
p4029
(lp4030
S'203.119.88.75'
p4031
aS'72.0.48.75'
p4032
aS'203.119.88.76'
p4033
aS'72.0.48.76'
p4034
asS'press'
p4035
(lp4036
S'194.169.218.34'
p4037
aS'185.24.64.34'
p4038
aS'185.38.99.3'
p4039
aS'108.59.161.3'
p4040
asS'world'
p4041
(lp4042
S'37.209.194.7'
p4043
aS'37.209.192.7'
p4044
aS'37.209.198.7'
p4045
aS'37.209.196.7'
p4046
asS'swatch'
p4047
(lp4048
S'192.42.173.30'
p4049
aS'192.42.174.30'
p4050
aS'192.42.175.30'
p4051
aS'192.42.176.30'
p4052
asS'you'
p4053
(lp4054
S'156.154.169.77'
p4055
aS'156.154.170.77'
p4056
aS'156.154.171.77'
p4057
aS'156.154.172.77'
p4058
aS'156.154.173.77'
p4059
aS'156.154.174.77'
p4060
asS'moe'
p4061
(lp4062
S'156.154.144.114'
p4063
aS'156.154.145.114'
p4064
aS'156.154.159.114'
p4065
aS'156.154.156.114'
p4066
aS'156.154.157.114'
p4067
aS'156.154.158.114'
p4068
asS'furniture'
p4069
(lp4070
S'37.209.194.7'
p4071
aS'37.209.192.7'
p4072
aS'37.209.198.7'
p4073
aS'37.209.196.7'
p4074
asS'gift'
p4075
(lp4076
S'64.96.1.1'
p4077
aS'64.96.245.53'
p4078
aS'185.159.197.3'
p4079
aS'185.159.198.3'
p4080
asS'miami'
p4081
(lp4082
S'213.248.217.29'
p4083
aS'103.49.81.29'
p4084
aS'213.248.221.29'
p4085
aS'43.230.49.29'
p4086
aS'156.154.100.3'
p4087
aS'156.154.101.3'
p4088
aS'156.154.102.3'
p4089
aS'156.154.103.3'
p4090
asS'xn--c1avg'
p4091
(lp4092
S'65.22.184.25'
p4093
aS'65.22.187.25'
p4094
aS'65.22.185.25'
p4095
aS'65.22.186.25'
p4096
asS'works'
p4097
(lp4098
S'37.209.194.7'
p4099
aS'37.209.192.7'
p4100
aS'37.209.198.7'
p4101
aS'37.209.196.7'
p4102
asS'soccer'
p4103
(lp4104
S'37.209.194.7'
p4105
aS'37.209.192.7'
p4106
aS'37.209.198.7'
p4107
aS'37.209.196.7'
p4108
asS'google'
p4109
(lp4110
S'216.239.32.105'
p4111
aS'216.239.34.105'
p4112
aS'216.239.36.105'
p4113
aS'216.239.38.105'
p4114
aS'216.239.60.105'
p4115
asS'cisco'
p4116
(lp4117
S'156.154.144.44'
p4118
aS'156.154.145.44'
p4119
aS'156.154.159.44'
p4120
aS'156.154.156.44'
p4121
aS'156.154.157.44'
p4122
aS'156.154.158.44'
p4123
asS'apartments'
p4124
(lp4125
S'37.209.194.7'
p4126
aS'37.209.192.7'
p4127
aS'37.209.198.7'
p4128
aS'37.209.196.7'
p4129
asS'xn--mk1bu44c'
p4130
(lp4131
S'192.42.173.30'
p4132
aS'192.42.174.30'
p4133
aS'192.42.175.30'
p4134
aS'192.42.176.30'
p4135
asS'productions'
p4136
(lp4137
S'37.209.194.7'
p4138
aS'37.209.192.7'
p4139
aS'37.209.198.7'
p4140
aS'37.209.196.7'
p4141
asS'jll'
p4142
(lp4143
S'65.22.148.9'
p4144
aS'65.22.151.9'
p4145
aS'65.22.149.9'
p4146
aS'65.22.150.9'
p4147
asS'jewelry'
p4148
(lp4149
S'37.209.194.7'
p4150
aS'37.209.192.7'
p4151
aS'37.209.198.7'
p4152
aS'37.209.196.7'
p4153
asS'pet'
p4154
(lp4155
S'65.22.16.17'
p4156
aS'65.22.19.17'
p4157
aS'65.22.17.17'
p4158
aS'65.22.18.17'
p4159
asS'tube'
p4160
(lp4161
S'156.154.169.80'
p4162
aS'156.154.170.80'
p4163
aS'156.154.171.80'
p4164
aS'156.154.172.80'
p4165
aS'156.154.173.80'
p4166
aS'156.154.174.80'
p4167
asS'vlaanderen'
p4168
(lp4169
S'194.0.6.1'
p4170
aS'194.0.37.1'
p4171
aS'194.0.43.1'
p4172
aS'194.0.44.1'
p4173
aS'194.0.1.10'
p4174
aS'120.29.253.8'
p4175
asS'legal'
p4176
(lp4177
S'37.209.194.7'
p4178
aS'37.209.192.7'
p4179
aS'37.209.198.7'
p4180
aS'37.209.196.7'
p4181
asS'singles'
p4182
(lp4183
S'37.209.194.7'
p4184
aS'37.209.192.7'
p4185
aS'37.209.198.7'
p4186
aS'37.209.196.7'
p4187
asS'market'
p4188
(lp4189
S'37.209.194.7'
p4190
aS'37.209.192.7'
p4191
aS'37.209.198.7'
p4192
aS'37.209.196.7'
p4193
asS'dating'
p4194
(lp4195
S'37.209.194.7'
p4196
aS'37.209.192.7'
p4197
aS'37.209.198.7'
p4198
aS'37.209.196.7'
p4199
asS'bd'
p4200
(lp4201
S'123.49.12.112'
p4202
aS'204.61.216.108'
p4203
aS'203.112.194.232'
p4204
aS'203.112.194.231'
p4205
asS'be'
p4206
(lp4207
S'194.0.6.1'
p4208
aS'194.0.37.1'
p4209
aS'194.0.43.1'
p4210
aS'194.0.44.1'
p4211
aS'194.0.1.10'
p4212
aS'120.29.253.8'
p4213
asS'bf'
p4214
(lp4215
S'196.216.168.34'
p4216
aS'206.82.130.196'
p4217
aS'91.203.32.147'
p4218
asS'bg'
p4219
(lp4220
S'192.92.129.99'
p4221
aS'193.68.3.232'
p4222
aS'193.68.99.99'
p4223
aS'194.0.32.1'
p4224
aS'185.143.80.1'
p4225
aS'192.5.4.1'
p4226
asS'run'
p4227
(lp4228
S'37.209.194.7'
p4229
aS'37.209.192.7'
p4230
aS'37.209.198.7'
p4231
aS'37.209.196.7'
p4232
asS'ba'
p4233
(lp4234
S'185.38.108.108'
p4235
aS'195.130.35.5'
p4236
aS'204.61.216.117'
p4237
aS'195.130.35.3'
p4238
aS'198.6.1.83'
p4239
aS'202.29.151.3'
p4240
asS'business'
p4241
(lp4242
S'37.209.194.7'
p4243
aS'37.209.192.7'
p4244
aS'37.209.198.7'
p4245
aS'37.209.196.7'
p4246
asS'xn--90ais'
p4247
(lp4248
S'178.172.160.20'
p4249
aS'93.125.30.44'
p4250
aS'195.209.35.70'
p4251
aS'62.212.73.101'
p4252
aS'46.165.217.94'
p4253
aS'108.59.8.66'
p4254
aS'128.199.68.43'
p4255
asS'bm'
p4256
(lp4257
S'199.254.59.9'
p4258
aS'199.249.116.9'
p4259
aS'199.254.60.9'
p4260
aS'199.249.124.9'
p4261
aS'199.254.61.9'
p4262
aS'199.254.62.9'
p4263
asS'dental'
p4264
(lp4265
S'37.209.194.7'
p4266
aS'37.209.192.7'
p4267
aS'37.209.198.7'
p4268
aS'37.209.196.7'
p4269
asS'bo'
p4270
(lp4271
S'200.160.0.5'
p4272
aS'166.114.1.40'
p4273
aS'192.93.0.4'
p4274
aS'204.61.216.48'
p4275
asS'bh'
p4276
(lp4277
S'193.188.97.197'
p4278
aS'193.188.97.212'
p4279
aS'193.188.97.193'
p4280
aS'193.188.97.209'
p4281
asS'bi'
p4282
(lp4283
S'193.0.9.62'
p4284
aS'196.2.8.205'
p4285
aS'196.2.12.205'
p4286
aS'204.61.216.61'
p4287
aS'196.216.168.23'
p4288
asS'bj'
p4289
(lp4290
S'193.0.9.63'
p4291
aS'194.51.3.49'
p4292
aS'81.91.225.18'
p4293
aS'196.216.168.33'
p4294
aS'81.91.225.1'
p4295
asS'bt'
p4296
(lp4297
S'156.106.192.121'
p4298
aS'202.144.128.200'
p4299
aS'202.144.128.210'
p4300
aS'204.61.216.17'
p4301
aS'198.6.1.65'
p4302
aS'198.6.1.182'
p4303
aS'128.223.32.35'
p4304
asS'discount'
p4305
(lp4306
S'37.209.194.7'
p4307
aS'37.209.192.7'
p4308
aS'37.209.198.7'
p4309
aS'37.209.196.7'
p4310
asS'host'
p4311
(lp4312
S'194.169.218.53'
p4313
aS'185.24.64.53'
p4314
aS'185.38.99.2'
p4315
aS'108.59.161.2'
p4316
asS'bw'
p4317
(lp4318
S'204.61.216.70'
p4319
aS'168.167.98.226'
p4320
aS'168.167.98.218'
p4321
aS'196.216.168.72'
p4322
aS'168.167.168.37'
p4323
asS'lixil'
p4324
(lp4325
S'37.209.192.4'
p4326
aS'37.209.194.4'
p4327
aS'37.209.196.4'
p4328
aS'37.209.198.4'
p4329
asS'br'
p4330
(lp4331
S'200.160.0.10'
p4332
aS'200.189.41.10'
p4333
aS'200.192.233.10'
p4334
aS'200.219.154.10'
p4335
aS'200.229.248.10'
p4336
aS'200.219.159.10'
p4337
asS'bs'
p4338
(lp4339
S'206.48.3.168'
p4340
aS'194.0.1.36'
p4341
aS'204.61.216.68'
p4342
aS'204.61.216.4'
p4343
asS'post'
p4344
(lp4345
S'65.22.0.1'
p4346
aS'65.22.4.1'
p4347
aS'65.22.1.1'
p4348
aS'65.22.5.1'
p4349
aS'65.22.2.1'
p4350
aS'65.22.3.1'
p4351
asS'bayern'
p4352
(lp4353
S'213.248.217.14'
p4354
aS'103.49.81.14'
p4355
aS'213.248.221.14'
p4356
aS'43.230.49.14'
p4357
aS'156.154.100.3'
p4358
aS'156.154.101.3'
p4359
aS'156.154.102.3'
p4360
aS'156.154.103.3'
p4361
asS'loans'
p4362
(lp4363
S'37.209.194.7'
p4364
aS'37.209.192.7'
p4365
aS'37.209.198.7'
p4366
aS'37.209.196.7'
p4367
asS'by'
p4368
(lp4369
S'178.172.160.20'
p4370
aS'93.125.30.44'
p4371
aS'195.209.35.70'
p4372
aS'62.212.73.101'
p4373
aS'46.165.217.94'
p4374
aS'108.59.8.66'
p4375
aS'128.199.68.43'
p4376
asS'bz'
p4377
(lp4378
S'199.254.59.1'
p4379
aS'199.249.116.1'
p4380
aS'199.254.60.1'
p4381
aS'199.249.124.1'
p4382
aS'199.254.61.1'
p4383
aS'199.254.62.1'
p4384
asS'science'
p4385
(lp4386
S'156.154.169.41'
p4387
aS'156.154.170.41'
p4388
aS'156.154.171.41'
p4389
aS'156.154.172.41'
p4390
aS'156.154.173.41'
p4391
aS'156.154.174.41'
p4392
asS'faith'
p4393
(lp4394
S'156.154.144.54'
p4395
aS'156.154.145.54'
p4396
aS'156.154.159.54'
p4397
aS'156.154.156.54'
p4398
aS'156.154.157.54'
p4399
aS'156.154.158.54'
p4400
asS'om'
p4401
(lp4402
S'185.27.88.50'
p4403
aS'185.27.89.50'
p4404
aS'37.209.194.6'
p4405
aS'37.209.192.6'
p4406
aS'37.209.198.6'
p4407
aS'37.209.196.6'
p4408
asS'xn--tckwe'
p4409
(lp4410
S'192.42.173.30'
p4411
aS'192.42.174.30'
p4412
aS'192.42.175.30'
p4413
aS'192.42.176.30'
p4414
asS'cafe'
p4415
(lp4416
S'37.209.194.7'
p4417
aS'37.209.192.7'
p4418
aS'37.209.198.7'
p4419
aS'37.209.196.7'
p4420
asS'srl'
p4421
(lp4422
S'65.22.80.33'
p4423
aS'65.22.83.33'
p4424
aS'65.22.81.33'
p4425
aS'65.22.82.33'
p4426
asS'melbourne'
p4427
(lp4428
S'37.209.192.10'
p4429
aS'37.209.194.10'
p4430
aS'37.209.196.10'
p4431
aS'37.209.198.10'
p4432
asS'plus'
p4433
(lp4434
S'37.209.194.7'
p4435
aS'37.209.192.7'
p4436
aS'37.209.198.7'
p4437
aS'37.209.196.7'
p4438
asS'ruhr'
p4439
(lp4440
S'195.253.64.11'
p4441
aS'195.253.64.12'
p4442
aS'195.253.65.11'
p4443
aS'195.253.65.12'
p4444
asS'krd'
p4445
(lp4446
S'37.209.192.10'
p4447
aS'37.209.194.10'
p4448
aS'37.209.196.10'
p4449
aS'37.209.198.10'
p4450
asS'software'
p4451
(lp4452
S'37.209.194.7'
p4453
aS'37.209.192.7'
p4454
aS'37.209.198.7'
p4455
aS'37.209.196.7'
p4456
asS'repair'
p4457
(lp4458
S'37.209.194.7'
p4459
aS'37.209.192.7'
p4460
aS'37.209.198.7'
p4461
aS'37.209.196.7'
p4462
asS'xyz'
p4463
(lp4464
S'194.169.218.42'
p4465
aS'185.24.64.42'
p4466
aS'212.18.248.42'
p4467
aS'212.18.249.42'
p4468
asS'mba'
p4469
(lp4470
S'37.209.194.7'
p4471
aS'37.209.192.7'
p4472
aS'37.209.198.7'
p4473
aS'37.209.196.7'
p4474
asS'lb'
p4475
(lp4476
S'203.119.56.132'
p4477
aS'147.28.0.39'
p4478
aS'77.72.229.254'
p4479
aS'193.188.128.14'
p4480
asS'ismaili'
p4481
(lp4482
S'65.22.44.25'
p4483
aS'65.22.47.25'
p4484
aS'65.22.45.25'
p4485
aS'65.22.46.25'
p4486
asS'monash'
p4487
(lp4488
S'37.209.192.9'
p4489
aS'37.209.194.9'
p4490
aS'37.209.196.9'
p4491
aS'37.209.198.9'
p4492
asS'soy'
p4493
(lp4494
S'216.239.32.105'
p4495
aS'216.239.34.105'
p4496
aS'216.239.36.105'
p4497
aS'216.239.38.105'
p4498
aS'216.239.60.105'
p4499
asS'amsterdam'
p4500
(lp4501
S'193.176.144.14'
p4502
aS'213.154.241.83'
p4503
aS'194.171.17.14'
p4504
aS'95.142.99.216'
p4505
aS'194.0.28.4'
p4506
asS'corsica'
p4507
(lp4508
S'194.0.9.1'
p4509
aS'194.146.106.46'
p4510
aS'194.0.36.1'
p4511
asS'viajes'
p4512
(lp4513
S'37.209.194.7'
p4514
aS'37.209.192.7'
p4515
aS'37.209.198.7'
p4516
aS'37.209.196.7'
p4517
asS'museum'
p4518
(lp4519
S'194.0.9.1'
p4520
aS'194.146.106.46'
p4521
aS'194.0.36.1'
p4522
asS'lol'
p4523
(lp4524
S'64.96.1.1'
p4525
aS'64.96.245.53'
p4526
aS'185.159.197.3'
p4527
aS'185.159.198.3'
p4528
asS'accountant'
p4529
(lp4530
S'156.154.144.195'
p4531
aS'156.154.145.195'
p4532
aS'156.154.159.195'
p4533
aS'156.154.156.195'
p4534
aS'156.154.157.195'
p4535
aS'156.154.158.195'
p4536
asS'fish'
p4537
(lp4538
S'37.209.194.7'
p4539
aS'37.209.192.7'
p4540
aS'37.209.198.7'
p4541
aS'37.209.196.7'
p4542
asS'cricket'
p4543
(lp4544
S'156.154.144.220'
p4545
aS'156.154.145.220'
p4546
aS'156.154.159.220'
p4547
aS'156.154.156.220'
p4548
aS'156.154.157.220'
p4549
aS'156.154.158.220'
p4550
asS'hr'
p4551
(lp4552
S'204.61.216.90'
p4553
aS'192.5.4.1'
p4554
aS'161.53.160.100'
p4555
asS'xn--t60b56a'
p4556
(lp4557
S'192.42.173.30'
p4558
aS'192.42.174.30'
p4559
aS'192.42.175.30'
p4560
aS'192.42.176.30'
p4561
asS'tm'
p4562
(lp4563
S'194.0.1.22'
p4564
aS'194.0.2.22'
p4565
aS'74.116.178.22'
p4566
aS'74.116.179.22'
p4567
aS'64.251.31.180'
p4568
aS'80.249.100.44'
p4569
aS'91.208.95.22'
p4570
asS'ht'
p4571
(lp4572
S'199.19.5.7'
p4573
aS'199.19.6.7'
p4574
aS'192.134.0.49'
p4575
aS'204.61.216.38'
p4576
aS'132.207.144.2'
p4577
asS'hu'
p4578
(lp4579
S'193.239.148.1'
p4580
aS'193.239.149.161'
p4581
aS'193.6.16.1'
p4582
aS'195.70.35.250'
p4583
aS'194.0.25.11'
p4584
aS'192.93.0.4'
p4585
aS'194.0.1.12'
p4586
asS'delivery'
p4587
(lp4588
S'37.209.194.7'
p4589
aS'37.209.192.7'
p4590
aS'37.209.198.7'
p4591
aS'37.209.196.7'
p4592
asS'hk'
p4593
(lp4594
S'203.119.2.218'
p4595
aS'203.119.87.218'
p4596
aS'210.201.138.58'
p4597
aS'204.61.216.46'
p4598
aS'202.12.28.140'
p4599
aS'202.45.188.39'
p4600
aS'137.189.6.21'
p4601
aS'194.146.106.70'
p4602
asS'hn'
p4603
(lp4604
S'192.5.4.1'
p4605
aS'204.61.216.64'
p4606
aS'200.33.111.1'
p4607
asS'alsace'
p4608
(lp4609
S'194.0.9.1'
p4610
aS'194.146.106.46'
p4611
aS'194.0.36.1'
p4612
asS'solar'
p4613
(lp4614
S'37.209.194.7'
p4615
aS'37.209.192.7'
p4616
aS'37.209.198.7'
p4617
aS'37.209.196.7'
p4618
asS'hm'
p4619
(lp4620
S'208.70.79.25'
p4621
aS'208.70.79.24'
p4622
aS'128.199.180.188'
p4623
asS'kg'
p4624
(lp4625
S'193.0.9.84'
p4626
aS'195.38.160.36'
p4627
asS'info'
p4628
(lp4629
S'199.254.31.1'
p4630
aS'199.249.113.1'
p4631
aS'199.254.48.1'
p4632
aS'199.249.121.1'
p4633
aS'199.254.49.1'
p4634
aS'199.254.50.1'
p4635
asS'uy'
p4636
(lp4637
S'164.73.128.5'
p4638
aS'164.73.128.70'
p4639
aS'65.22.41.1'
p4640
aS'200.160.0.5'
p4641
aS'200.40.30.254'
p4642
aS'200.40.220.254'
p4643
aS'200.33.111.1'
p4644
aS'192.5.4.1'
p4645
asS'uz'
p4646
(lp4647
S'91.212.89.8'
p4648
aS'81.95.224.158'
p4649
aS'195.158.1.22'
p4650
aS'83.69.138.230'
p4651
aS'217.12.81.129'
p4652
aS'83.69.129.4'
p4653
aS'104.238.81.247'
p4654
asS'hosting'
p4655
(lp4656
S'64.96.1.1'
p4657
aS'64.96.245.53'
p4658
aS'185.159.197.3'
p4659
aS'185.159.198.3'
p4660
asS'us'
p4661
(lp4662
S'156.154.124.70'
p4663
aS'156.154.125.70'
p4664
aS'156.154.127.70'
p4665
aS'156.154.126.70'
p4666
aS'209.173.58.70'
p4667
aS'156.154.128.70'
p4668
asS'xn--p1acf'
p4669
(lp4670
S'199.19.5.21'
p4671
aS'199.19.6.21'
p4672
aS'72.0.49.2'
p4673
aS'72.42.113.2'
p4674
asS'vanguard'
p4675
(lp4676
S'192.42.173.30'
p4677
aS'192.42.174.30'
p4678
aS'192.42.175.30'
p4679
aS'192.42.176.30'
p4680
asS'uk'
p4681
(lp4682
S'156.154.100.3'
p4683
aS'156.154.101.3'
p4684
aS'156.154.102.3'
p4685
aS'156.154.103.3'
p4686
aS'213.248.216.1'
p4687
aS'103.49.80.1'
p4688
aS'213.248.220.1'
p4689
aS'43.230.48.1'
p4690
asS'ug'
p4691
(lp4692
S'199.4.138.53'
p4693
aS'193.0.9.52'
p4694
aS'212.88.97.132'
p4695
aS'196.216.168.42'
p4696
aS'204.61.216.60'
p4697
asS'builders'
p4698
(lp4699
S'37.209.194.7'
p4700
aS'37.209.192.7'
p4701
aS'37.209.198.7'
p4702
aS'37.209.196.7'
p4703
asS'irish'
p4704
(lp4705
S'37.209.194.7'
p4706
aS'37.209.192.7'
p4707
aS'37.209.198.7'
p4708
aS'37.209.196.7'
p4709
asS'cba'
p4710
(lp4711
S'37.209.192.9'
p4712
aS'37.209.194.9'
p4713
aS'37.209.196.9'
p4714
aS'37.209.198.9'
p4715
asS'ae'
p4716
(lp4717
S'79.98.120.73'
p4718
aS'79.98.121.73'
p4719
aS'202.12.28.140'
p4720
aS'192.5.4.1'
p4721
aS'199.4.137.1'
p4722
asS'ad'
p4723
(lp4724
S'194.69.254.15'
p4725
aS'193.0.9.53'
p4726
aS'192.134.0.49'
p4727
aS'194.158.74.10'
p4728
aS'194.158.74.9'
p4729
aS'204.152.184.64'
p4730
asS'ag'
p4731
(lp4732
S'199.254.59.1'
p4733
aS'199.249.116.1'
p4734
aS'199.254.60.1'
p4735
aS'199.249.124.1'
p4736
aS'199.254.61.1'
p4737
aS'199.254.62.1'
p4738
asS'af'
p4739
(lp4740
S'199.19.5.1'
p4741
aS'199.19.6.1'
p4742
aS'204.61.216.13'
p4743
asS'int'
p4744
(lp4745
S'199.43.135.53'
p4746
aS'199.43.133.53'
p4747
aS'199.43.134.53'
p4748
aS'137.39.1.3'
p4749
aS'193.63.94.20'
p4750
aS'193.0.9.4'
p4751
asS'am'
p4752
(lp4753
S'77.72.229.254'
p4754
aS'194.0.1.26'
p4755
aS'204.61.216.96'
p4756
aS'195.43.75.53'
p4757
aS'192.5.4.1'
p4758
asS'al'
p4759
(lp4760
S'194.1.149.230'
p4761
aS'194.0.11.108'
p4762
aS'147.28.0.39'
p4763
aS'202.29.151.3'
p4764
asS'ao'
p4765
(lp4766
S'185.39.208.17'
p4767
aS'204.61.216.113'
p4768
aS'197.149.149.11'
p4769
aS'198.6.1.82'
p4770
aS'204.152.184.64'
p4771
aS'192.5.4.1'
p4772
asS'kn'
p4773
(lp4774
S'204.61.216.109'
p4775
aS'162.88.52.5'
p4776
aS'162.88.53.5'
p4777
asS'aq'
p4778
(lp4779
S'162.88.52.6'
p4780
aS'162.88.53.6'
p4781
aS'203.119.56.132'
p4782
aS'77.72.229.254'
p4783
aS'202.46.190.131'
p4784
asS'as'
p4785
(lp4786
S'194.146.106.86'
p4787
aS'204.61.216.111'
p4788
aS'68.178.129.149'
p4789
aS'202.46.190.131'
p4790
asS'associates'
p4791
(lp4792
S'37.209.194.7'
p4793
aS'37.209.192.7'
p4794
aS'37.209.198.7'
p4795
aS'37.209.196.7'
p4796
asS'au'
p4797
(lp4798
S'58.65.254.73'
p4799
aS'58.65.253.73'
p4800
aS'65.22.196.1'
p4801
aS'65.22.197.1'
p4802
aS'65.22.198.1'
p4803
aS'65.22.199.1'
p4804
aS'211.29.133.32'
p4805
aS'203.119.43.53'
p4806
aS'37.209.192.5'
p4807
aS'37.209.194.5'
p4808
aS'37.209.196.5'
p4809
aS'37.209.198.5'
p4810
asS'at'
p4811
(lp4812
S'81.91.161.98'
p4813
aS'194.146.106.50'
p4814
aS'81.91.173.130'
p4815
aS'194.0.25.10'
p4816
aS'195.66.241.82'
p4817
aS'78.104.144.2'
p4818
aS'192.92.125.2'
p4819
aS'194.0.10.100'
p4820
asS'chat'
p4821
(lp4822
S'37.209.194.7'
p4823
aS'37.209.192.7'
p4824
aS'37.209.198.7'
p4825
aS'37.209.196.7'
p4826
asS'ink'
p4827
(lp4828
S'194.169.218.41'
p4829
aS'185.24.64.41'
p4830
aS'212.18.248.41'
p4831
aS'212.18.249.41'
p4832
asS'ax'
p4833
(lp4834
S'194.112.0.1'
p4835
aS'194.112.0.5'
p4836
aS'82.199.186.130'
p4837
aS'82.199.184.194'
p4838
asS'education'
p4839
(lp4840
S'37.209.194.7'
p4841
aS'37.209.192.7'
p4842
aS'37.209.198.7'
p4843
aS'37.209.196.7'
p4844
asS'film'
p4845
(lp4846
S'37.209.192.10'
p4847
aS'37.209.194.10'
p4848
aS'37.209.196.10'
p4849
aS'37.209.198.10'
p4850
asS'ni'
p4851
(lp4852
S'165.98.1.2'
p4853
aS'137.39.1.3'
p4854
aS'200.85.160.2'
p4855
aS'200.62.64.1'
p4856
aS'186.1.31.8'
p4857
aS'200.9.187.2'
p4858
asS'codes'
p4859
(lp4860
S'37.209.194.7'
p4861
aS'37.209.192.7'
p4862
aS'37.209.198.7'
p4863
aS'37.209.196.7'
p4864
asS'nl'
p4865
(lp4866
S'194.146.106.42'
p4867
aS'193.176.144.5'
p4868
aS'213.154.241.85'
p4869
aS'194.171.17.10'
p4870
aS'95.142.99.212'
p4871
aS'194.0.28.53'
p4872
aS'192.93.0.4'
p4873
aS'192.5.4.1'
p4874
asS'istanbul'
p4875
(lp4876
S'65.22.144.9'
p4877
aS'65.22.147.9'
p4878
aS'65.22.145.9'
p4879
aS'65.22.146.9'
p4880
asS'no'
p4881
(lp4882
S'194.146.106.6'
p4883
aS'128.39.8.40'
p4884
aS'193.75.4.22'
p4885
aS'158.38.8.133'
p4886
aS'156.154.100.12'
p4887
aS'156.154.101.12'
p4888
asS'na'
p4889
(lp4890
S'108.59.162.1'
p4891
aS'108.59.163.1'
p4892
aS'74.121.127.35'
p4893
aS'81.200.69.35'
p4894
aS'195.253.64.7'
p4895
aS'204.61.216.35'
p4896
aS'204.152.184.96'
p4897
aS'192.5.4.1'
p4898
asS'nc'
p4899
(lp4900
S'193.0.9.100'
p4901
aS'202.87.129.16'
p4902
aS'202.87.129.17'
p4903
aS'114.69.222.1'
p4904
asS'ne'
p4905
(lp4906
S'193.0.9.101'
p4907
aS'41.138.54.10'
p4908
aS'194.51.3.49'
p4909
aS'196.216.168.45'
p4910
asS'nf'
p4911
(lp4912
S'199.19.5.10'
p4913
aS'199.19.6.10'
p4914
aS'204.61.216.51'
p4915
asS'creditcard'
p4916
(lp4917
S'37.209.194.7'
p4918
aS'37.209.192.7'
p4919
aS'37.209.198.7'
p4920
aS'37.209.196.7'
p4921
asS'nz'
p4922
(lp4923
S'202.46.190.130'
p4924
aS'202.46.187.130'
p4925
aS'202.46.188.130'
p4926
aS'202.46.189.130'
p4927
aS'185.159.197.130'
p4928
aS'185.159.198.130'
p4929
aS'194.146.106.54'
p4930
asS'kp'
p4931
(lp4932
S'175.45.176.15'
p4933
aS'175.45.176.16'
p4934
asS'nico'
p4935
(lp4936
S'37.209.192.4'
p4937
aS'37.209.194.4'
p4938
aS'37.209.196.4'
p4939
aS'37.209.198.4'
p4940
asS'jcb'
p4941
(lp4942
S'37.209.192.4'
p4943
aS'37.209.194.4'
p4944
aS'37.209.196.4'
p4945
aS'37.209.198.4'
p4946
asS'digital'
p4947
(lp4948
S'37.209.194.7'
p4949
aS'37.209.192.7'
p4950
aS'37.209.198.7'
p4951
aS'37.209.196.7'
p4952
asS'np'
p4953
(lp4954
S'193.0.9.102'
p4955
aS'202.12.28.140'
p4956
aS'198.32.126.50'
p4957
aS'204.61.216.11'
p4958
aS'204.152.184.64'
p4959
aS'202.52.255.5'
p4960
aS'192.189.54.17'
p4961
asS'tech'
p4962
(lp4963
S'194.169.218.60'
p4964
aS'185.24.64.60'
p4965
aS'185.38.99.6'
p4966
aS'108.59.161.6'
p4967
asS'nr'
p4968
(lp4969
S'203.98.224.66'
p4970
aS'203.98.225.9'
p4971
aS'202.144.128.200'
p4972
aS'192.5.4.1'
p4973
asS'nu'
p4974
(lp4975
S'194.146.106.22'
p4976
aS'65.22.164.1'
p4977
aS'192.36.144.107'
p4978
aS'213.108.25.4'
p4979
asS'weir'
p4980
(lp4981
S'192.42.173.30'
p4982
aS'192.42.174.30'
p4983
aS'192.42.175.30'
p4984
aS'192.42.176.30'
p4985
asS'xxx'
p4986
(lp4987
S'199.115.152.1'
p4988
aS'199.115.156.1'
p4989
aS'199.115.153.1'
p4990
aS'199.115.157.1'
p4991
aS'199.115.154.1'
p4992
aS'199.115.155.1'
p4993
asS'football'
p4994
(lp4995
S'37.209.194.7'
p4996
aS'37.209.192.7'
p4997
aS'37.209.198.7'
p4998
aS'37.209.196.7'
p4999
asS'diet'
p5000
(lp5001
S'64.96.1.1'
p5002
aS'64.96.245.53'
p5003
aS'185.159.197.3'
p5004
aS'185.159.198.3'
p5005
asS'gifts'
p5006
(lp5007
S'37.209.194.7'
p5008
aS'37.209.192.7'
p5009
aS'37.209.198.7'
p5010
aS'37.209.196.7'
p5011
asS'xn--pgbs0dh'
p5012
(lp5013
S'41.228.62.63'
p5014
aS'41.228.63.62'
p5015
aS'192.93.0.4'
p5016
aS'204.61.216.94'
p5017
aS'147.28.0.39'
p5018
aS'196.216.168.25'
p5019
asS'bcn'
p5020
(lp5021
S'195.253.64.11'
p5022
aS'195.253.64.12'
p5023
aS'195.253.65.11'
p5024
aS'195.253.65.12'
p5025
asS'land'
p5026
(lp5027
S'37.209.194.7'
p5028
aS'37.209.192.7'
p5029
aS'37.209.198.7'
p5030
aS'37.209.196.7'
p5031
asS'fund'
p5032
(lp5033
S'37.209.194.7'
p5034
aS'37.209.192.7'
p5035
aS'37.209.198.7'
p5036
aS'37.209.196.7'
p5037
asS'pr'
p5038
(lp5039
S'199.254.59.17'
p5040
aS'199.249.116.17'
p5041
aS'199.254.60.17'
p5042
aS'199.249.124.17'
p5043
aS'199.254.61.17'
p5044
aS'199.254.62.17'
p5045
asS'space'
p5046
(lp5047
S'194.169.218.51'
p5048
aS'185.24.64.51'
p5049
aS'185.38.99.4'
p5050
aS'108.59.161.4'
p5051
asS'youtube'
p5052
(lp5053
S'216.239.32.105'
p5054
aS'216.239.34.105'
p5055
aS'216.239.36.105'
p5056
aS'216.239.38.105'
p5057
aS'216.239.60.105'
p5058
asS'barcelona'
p5059
(lp5060
S'195.253.64.11'
p5061
aS'195.253.64.12'
p5062
aS'195.253.65.11'
p5063
aS'195.253.65.12'
p5064
asS'xn--54b7fta0cc'
p5065
(lp5066
S'204.61.216.108'
p5067
aS'180.211.212.213'
p5068
aS'123.49.50.51'
p5069
asS'telefonica'
p5070
(lp5071
S'195.253.64.11'
p5072
aS'195.253.64.12'
p5073
aS'195.253.65.11'
p5074
aS'195.253.65.12'
p5075
asS'xn--p1ai'
p5076
(lp5077
S'193.232.128.6'
p5078
aS'194.85.252.62'
p5079
aS'194.190.124.17'
p5080
aS'193.232.142.17'
p5081
aS'193.232.156.17'
p5082
asS'directory'
p5083
(lp5084
S'37.209.194.7'
p5085
aS'37.209.192.7'
p5086
aS'37.209.198.7'
p5087
aS'37.209.196.7'
p5088
as.